Archive member included to satisfy reference by file (symbol)

C:/Users/DuyThanh/mingw64/bin/../lib/gcc/x86_64-w64-mingw32/13.2.0/../../../../x86_64-w64-mingw32/lib/../lib/libmingw32.a(lib64_libmingw32_a-gccmain.o)
                              C:/Users/DuyThanh/mingw64/bin/../lib/gcc/x86_64-w64-mingw32/13.2.0/../../../../x86_64-w64-mingw32/lib/../lib/dllcrt2.o (__main)
C:/Users/DuyThanh/mingw64/bin/../lib/gcc/x86_64-w64-mingw32/13.2.0/../../../../x86_64-w64-mingw32/lib/../lib/libmingw32.a(lib64_libmingw32_a-natstart.o)
                              C:/Users/DuyThanh/mingw64/bin/../lib/gcc/x86_64-w64-mingw32/13.2.0/../../../../x86_64-w64-mingw32/lib/../lib/dllcrt2.o (__native_startup_lock)
C:/Users/DuyThanh/mingw64/bin/../lib/gcc/x86_64-w64-mingw32/13.2.0/../../../../x86_64-w64-mingw32/lib/../lib/libmingw32.a(lib64_libmingw32_a-tlssup.o)
                              C:/Users/DuyThanh/mingw64/bin/../lib/gcc/x86_64-w64-mingw32/13.2.0/../../../../x86_64-w64-mingw32/lib/../lib/dllcrt2.o (__dyn_tls_init_callback)
C:/Users/DuyThanh/mingw64/bin/../lib/gcc/x86_64-w64-mingw32/13.2.0/../../../../x86_64-w64-mingw32/lib/../lib/libmingw32.a(lib64_libmingw32_a-cinitexe.o)
                              C:/Users/DuyThanh/mingw64/bin/../lib/gcc/x86_64-w64-mingw32/13.2.0/../../../../x86_64-w64-mingw32/lib/../lib/dllcrt2.o (__xc_z)
C:/Users/DuyThanh/mingw64/bin/../lib/gcc/x86_64-w64-mingw32/13.2.0/../../../../x86_64-w64-mingw32/lib/../lib/libmingw32.a(lib64_libmingw32_a-mingw_helpers.o)
                              C:/Users/DuyThanh/mingw64/bin/../lib/gcc/x86_64-w64-mingw32/13.2.0/../../../../x86_64-w64-mingw32/lib/../lib/dllcrt2.o (__mingw_app_type)
C:/Users/DuyThanh/mingw64/bin/../lib/gcc/x86_64-w64-mingw32/13.2.0/../../../../x86_64-w64-mingw32/lib/../lib/libmingw32.a(lib64_libmingw32_a-pseudo-reloc.o)
                              C:/Users/DuyThanh/mingw64/bin/../lib/gcc/x86_64-w64-mingw32/13.2.0/../../../../x86_64-w64-mingw32/lib/../lib/dllcrt2.o (_pei386_runtime_relocator)
C:/Users/DuyThanh/mingw64/bin/../lib/gcc/x86_64-w64-mingw32/13.2.0/../../../../x86_64-w64-mingw32/lib/../lib/libmingw32.a(lib64_libmingw32_a-tlsthrd.o)
                              C:/Users/DuyThanh/mingw64/bin/../lib/gcc/x86_64-w64-mingw32/13.2.0/../../../../x86_64-w64-mingw32/lib/../lib/libmingw32.a(lib64_libmingw32_a-tlssup.o) (__mingw_TLScallback)
C:/Users/DuyThanh/mingw64/bin/../lib/gcc/x86_64-w64-mingw32/13.2.0/../../../../x86_64-w64-mingw32/lib/../lib/libmingw32.a(lib64_libmingw32_a-tlsmcrt.o)
                              C:/Users/DuyThanh/mingw64/bin/../lib/gcc/x86_64-w64-mingw32/13.2.0/../../../../x86_64-w64-mingw32/lib/../lib/libmingw32.a(lib64_libmingw32_a-tlssup.o) (_CRT_MT)
C:/Users/DuyThanh/mingw64/bin/../lib/gcc/x86_64-w64-mingw32/13.2.0/../../../../x86_64-w64-mingw32/lib/../lib/libmingw32.a(lib64_libmingw32_a-exit_wrappers.o)
                              C:\Users\DuyThanh\AppData\Local\Temp\ccRJjOEn.o (exit)
C:/Users/DuyThanh/mingw64/bin/../lib/gcc/x86_64-w64-mingw32/13.2.0/../../../../x86_64-w64-mingw32/lib/../lib/libmingw32.a(lib64_libmingw32_a-pseudo-reloc-list.o)
                              C:/Users/DuyThanh/mingw64/bin/../lib/gcc/x86_64-w64-mingw32/13.2.0/../../../../x86_64-w64-mingw32/lib/../lib/libmingw32.a(lib64_libmingw32_a-pseudo-reloc.o) (__RUNTIME_PSEUDO_RELOC_LIST__)
C:/Users/DuyThanh/mingw64/bin/../lib/gcc/x86_64-w64-mingw32/13.2.0/../../../../x86_64-w64-mingw32/lib/../lib/libmingw32.a(lib64_libmingw32_a-pesect.o)
                              C:/Users/DuyThanh/mingw64/bin/../lib/gcc/x86_64-w64-mingw32/13.2.0/../../../../x86_64-w64-mingw32/lib/../lib/libmingw32.a(lib64_libmingw32_a-pseudo-reloc.o) (__mingw_GetSectionForAddress)
C:/Users/DuyThanh/mingw64/bin/../lib/gcc/x86_64-w64-mingw32/13.2.0/../../../../x86_64-w64-mingw32/lib/../lib/libmingw32.a(lib64_libmingw32_a-CRT_fp10.o)
                              C:/Users/DuyThanh/mingw64/bin/../lib/gcc/x86_64-w64-mingw32/13.2.0/../../../../x86_64-w64-mingw32/lib/../lib/libmingw32.a(lib64_libmingw32_a-tlsthrd.o) (_fpreset)
C:/Users/DuyThanh/mingw64/bin/../lib/gcc/x86_64-w64-mingw32/13.2.0/libgcc.a(_chkstk_ms.o)
                              C:\Users\DuyThanh\AppData\Local\Temp\cclGozRv.o (___chkstk_ms)
C:/Users/DuyThanh/mingw64/bin/../lib/gcc/x86_64-w64-mingw32/13.2.0/libgcc.a(_ctors.o)
                              C:/Users/DuyThanh/mingw64/bin/../lib/gcc/x86_64-w64-mingw32/13.2.0/../../../../x86_64-w64-mingw32/lib/../lib/libmingw32.a(lib64_libmingw32_a-gccmain.o) (__DTOR_LIST__)
C:/Users/DuyThanh/mingw64/bin/../lib/gcc/x86_64-w64-mingw32/13.2.0/../../../../x86_64-w64-mingw32/lib/../lib/libmingwex.a(lib64_libmingwex_a-dllentry.o)
                              C:/Users/DuyThanh/mingw64/bin/../lib/gcc/x86_64-w64-mingw32/13.2.0/../../../../x86_64-w64-mingw32/lib/../lib/dllcrt2.o (DllEntryPoint)
C:/Users/DuyThanh/mingw64/bin/../lib/gcc/x86_64-w64-mingw32/13.2.0/../../../../x86_64-w64-mingw32/lib/../lib/libmingwex.a(lib64_libmingwex_a-dllmain.o)
                              C:/Users/DuyThanh/mingw64/bin/../lib/gcc/x86_64-w64-mingw32/13.2.0/../../../../x86_64-w64-mingw32/lib/../lib/dllcrt2.o (DllMain)
C:/Users/DuyThanh/mingw64/bin/../lib/gcc/x86_64-w64-mingw32/13.2.0/../../../../x86_64-w64-mingw32/lib/../lib/libmingwex.a(lib64_libmingwex_a-strtodnrp.o)
                              C:\Users\DuyThanh\AppData\Local\Temp\cclGozRv.o (__mingw_strtod)
C:/Users/DuyThanh/mingw64/bin/../lib/gcc/x86_64-w64-mingw32/13.2.0/../../../../x86_64-w64-mingw32/lib/../lib/libmingwex.a(lib64_libmingwex_a-dirent.o)
                              C:\Users\DuyThanh\AppData\Local\Temp\cclGozRv.o (opendir)
C:/Users/DuyThanh/mingw64/bin/../lib/gcc/x86_64-w64-mingw32/13.2.0/../../../../x86_64-w64-mingw32/lib/../lib/libmingwex.a(lib64_libmingwex_a-mingw_vfprintf.o)
                              C:\Users\DuyThanh\AppData\Local\Temp\ccRJjOEn.o (__mingw_vfprintf)
C:/Users/DuyThanh/mingw64/bin/../lib/gcc/x86_64-w64-mingw32/13.2.0/../../../../x86_64-w64-mingw32/lib/../lib/libmingwex.a(lib64_libmingwex_a-mingw_vfscanf.o)
                              C:\Users\DuyThanh\AppData\Local\Temp\cclGozRv.o (__mingw_vsscanf)
C:/Users/DuyThanh/mingw64/bin/../lib/gcc/x86_64-w64-mingw32/13.2.0/../../../../x86_64-w64-mingw32/lib/../lib/libmingwex.a(lib64_libmingwex_a-strtodg.o)
                              C:/Users/DuyThanh/mingw64/bin/../lib/gcc/x86_64-w64-mingw32/13.2.0/../../../../x86_64-w64-mingw32/lib/../lib/libmingwex.a(lib64_libmingwex_a-strtodnrp.o) (__strtodg)
C:/Users/DuyThanh/mingw64/bin/../lib/gcc/x86_64-w64-mingw32/13.2.0/../../../../x86_64-w64-mingw32/lib/../lib/libmingwex.a(lib64_libmingwex_a-strtof.o)
                              C:/Users/DuyThanh/mingw64/bin/../lib/gcc/x86_64-w64-mingw32/13.2.0/../../../../x86_64-w64-mingw32/lib/../lib/libmingwex.a(lib64_libmingwex_a-mingw_vfscanf.o) (__mingw_strtof)
C:/Users/DuyThanh/mingw64/bin/../lib/gcc/x86_64-w64-mingw32/13.2.0/../../../../x86_64-w64-mingw32/lib/../lib/libmingwex.a(lib64_libmingwex_a-strtopx.o)
                              C:/Users/DuyThanh/mingw64/bin/../lib/gcc/x86_64-w64-mingw32/13.2.0/../../../../x86_64-w64-mingw32/lib/../lib/libmingwex.a(lib64_libmingwex_a-mingw_vfscanf.o) (__mingw_strtold)
C:/Users/DuyThanh/mingw64/bin/../lib/gcc/x86_64-w64-mingw32/13.2.0/../../../../x86_64-w64-mingw32/lib/../lib/libmingwex.a(lib64_libmingwex_a-sum.o)
                              C:/Users/DuyThanh/mingw64/bin/../lib/gcc/x86_64-w64-mingw32/13.2.0/../../../../x86_64-w64-mingw32/lib/../lib/libmingwex.a(lib64_libmingwex_a-strtodg.o) (__sum_D2A)
C:/Users/DuyThanh/mingw64/bin/../lib/gcc/x86_64-w64-mingw32/13.2.0/../../../../x86_64-w64-mingw32/lib/../lib/libmingwex.a(lib64_libmingwex_a-mingw_pformat.o)
                              C:/Users/DuyThanh/mingw64/bin/../lib/gcc/x86_64-w64-mingw32/13.2.0/../../../../x86_64-w64-mingw32/lib/../lib/libmingwex.a(lib64_libmingwex_a-mingw_vfprintf.o) (__mingw_pformat)
C:/Users/DuyThanh/mingw64/bin/../lib/gcc/x86_64-w64-mingw32/13.2.0/../../../../x86_64-w64-mingw32/lib/../lib/libmingwex.a(lib64_libmingwex_a-dmisc.o)
                              C:/Users/DuyThanh/mingw64/bin/../lib/gcc/x86_64-w64-mingw32/13.2.0/../../../../x86_64-w64-mingw32/lib/../lib/libmingwex.a(lib64_libmingwex_a-mingw_pformat.o) (__freedtoa)
C:/Users/DuyThanh/mingw64/bin/../lib/gcc/x86_64-w64-mingw32/13.2.0/../../../../x86_64-w64-mingw32/lib/../lib/libmingwex.a(lib64_libmingwex_a-gdtoa.o)
                              C:/Users/DuyThanh/mingw64/bin/../lib/gcc/x86_64-w64-mingw32/13.2.0/../../../../x86_64-w64-mingw32/lib/../lib/libmingwex.a(lib64_libmingwex_a-mingw_pformat.o) (__gdtoa)
C:/Users/DuyThanh/mingw64/bin/../lib/gcc/x86_64-w64-mingw32/13.2.0/../../../../x86_64-w64-mingw32/lib/../lib/libmingwex.a(lib64_libmingwex_a-gethex.o)
                              C:/Users/DuyThanh/mingw64/bin/../lib/gcc/x86_64-w64-mingw32/13.2.0/../../../../x86_64-w64-mingw32/lib/../lib/libmingwex.a(lib64_libmingwex_a-strtodg.o) (__gethex_D2A)
C:/Users/DuyThanh/mingw64/bin/../lib/gcc/x86_64-w64-mingw32/13.2.0/../../../../x86_64-w64-mingw32/lib/../lib/libmingwex.a(lib64_libmingwex_a-gmisc.o)
                              C:/Users/DuyThanh/mingw64/bin/../lib/gcc/x86_64-w64-mingw32/13.2.0/../../../../x86_64-w64-mingw32/lib/../lib/libmingwex.a(lib64_libmingwex_a-strtodg.o) (__rshift_D2A)
C:/Users/DuyThanh/mingw64/bin/../lib/gcc/x86_64-w64-mingw32/13.2.0/../../../../x86_64-w64-mingw32/lib/../lib/libmingwex.a(lib64_libmingwex_a-hd_init.o)
                              C:/Users/DuyThanh/mingw64/bin/../lib/gcc/x86_64-w64-mingw32/13.2.0/../../../../x86_64-w64-mingw32/lib/../lib/libmingwex.a(lib64_libmingwex_a-gethex.o) (__mingw_hexdig_init_D2A)
C:/Users/DuyThanh/mingw64/bin/../lib/gcc/x86_64-w64-mingw32/13.2.0/../../../../x86_64-w64-mingw32/lib/../lib/libmingwex.a(lib64_libmingwex_a-hexnan.o)
                              C:/Users/DuyThanh/mingw64/bin/../lib/gcc/x86_64-w64-mingw32/13.2.0/../../../../x86_64-w64-mingw32/lib/../lib/libmingwex.a(lib64_libmingwex_a-strtodg.o) (__hexnan_D2A)
C:/Users/DuyThanh/mingw64/bin/../lib/gcc/x86_64-w64-mingw32/13.2.0/../../../../x86_64-w64-mingw32/lib/../lib/libmingwex.a(lib64_libmingwex_a-misc.o)
                              C:/Users/DuyThanh/mingw64/bin/../lib/gcc/x86_64-w64-mingw32/13.2.0/../../../../x86_64-w64-mingw32/lib/../lib/libmingwex.a(lib64_libmingwex_a-strtodg.o) (__Balloc_D2A)
C:/Users/DuyThanh/mingw64/bin/../lib/gcc/x86_64-w64-mingw32/13.2.0/../../../../x86_64-w64-mingw32/lib/../lib/libmingwex.a(lib64_libmingwex_a-smisc.o)
                              C:/Users/DuyThanh/mingw64/bin/../lib/gcc/x86_64-w64-mingw32/13.2.0/../../../../x86_64-w64-mingw32/lib/../lib/libmingwex.a(lib64_libmingwex_a-strtodg.o) (__s2b_D2A)
C:/Users/DuyThanh/mingw64/bin/../lib/gcc/x86_64-w64-mingw32/13.2.0/../../../../x86_64-w64-mingw32/lib/../lib/libmingwex.a(lib64_libmingwex_a-strnlen.o)
                              C:/Users/DuyThanh/mingw64/bin/../lib/gcc/x86_64-w64-mingw32/13.2.0/../../../../x86_64-w64-mingw32/lib/../lib/libmingwex.a(lib64_libmingwex_a-mingw_pformat.o) (strnlen)
C:/Users/DuyThanh/mingw64/bin/../lib/gcc/x86_64-w64-mingw32/13.2.0/../../../../x86_64-w64-mingw32/lib/../lib/libmingwex.a(lib64_libmingwex_a-wcsnlen.o)
                              C:/Users/DuyThanh/mingw64/bin/../lib/gcc/x86_64-w64-mingw32/13.2.0/../../../../x86_64-w64-mingw32/lib/../lib/libmingwex.a(lib64_libmingwex_a-mingw_pformat.o) (wcsnlen)
C:/Users/DuyThanh/mingw64/bin/../lib/gcc/x86_64-w64-mingw32/13.2.0/../../../../x86_64-w64-mingw32/lib/../lib/libmsvcrt.a(lib64_libmsvcrt_extra_a-mingw_lock.o)
                              C:/Users/DuyThanh/mingw64/bin/../lib/gcc/x86_64-w64-mingw32/13.2.0/../../../../x86_64-w64-mingw32/lib/../lib/libmingwex.a(lib64_libmingwex_a-mingw_vfprintf.o) (_lock_file)
C:/Users/DuyThanh/mingw64/bin/../lib/gcc/x86_64-w64-mingw32/13.2.0/../../../../x86_64-w64-mingw32/lib/../lib/libmsvcrt.a(lib64_libmsvcrt_common_a-acrt_iob_func.o)
                              C:/Users/DuyThanh/mingw64/bin/../lib/gcc/x86_64-w64-mingw32/13.2.0/../../../../x86_64-w64-mingw32/lib/../lib/libmingw32.a(lib64_libmingw32_a-pseudo-reloc.o) (__acrt_iob_func)
C:/Users/DuyThanh/mingw64/bin/../lib/gcc/x86_64-w64-mingw32/13.2.0/../../../../x86_64-w64-mingw32/lib/../lib/libmsvcrt.a(lib64_libmsvcrt_common_a-wcrtomb.o)
                              C:/Users/DuyThanh/mingw64/bin/../lib/gcc/x86_64-w64-mingw32/13.2.0/../../../../x86_64-w64-mingw32/lib/../lib/libmingwex.a(lib64_libmingwex_a-mingw_pformat.o) (wcrtomb)
C:/Users/DuyThanh/mingw64/bin/../lib/gcc/x86_64-w64-mingw32/13.2.0/../../../../x86_64-w64-mingw32/lib/../lib/libmsvcrt.a(lib64_libmsvcrt_common_a-onexit_table.o)
                              C:/Users/DuyThanh/mingw64/bin/../lib/gcc/x86_64-w64-mingw32/13.2.0/../../../../x86_64-w64-mingw32/lib/../lib/dllcrt2.o (_initialize_onexit_table)
C:/Users/DuyThanh/mingw64/bin/../lib/gcc/x86_64-w64-mingw32/13.2.0/../../../../x86_64-w64-mingw32/lib/../lib/libmsvcrt.a(lib64_libmsvcrt_common_a-mbrtowc.o)
                              C:/Users/DuyThanh/mingw64/bin/../lib/gcc/x86_64-w64-mingw32/13.2.0/../../../../x86_64-w64-mingw32/lib/../lib/libmingwex.a(lib64_libmingwex_a-mingw_vfscanf.o) (mbrtowc)
C:/Users/DuyThanh/mingw64/bin/../lib/gcc/x86_64-w64-mingw32/13.2.0/../../../../x86_64-w64-mingw32/lib/../lib/libmsvcrt.a(libmsvcrt_defs00063.o)
                              C:/Users/DuyThanh/mingw64/bin/../lib/gcc/x86_64-w64-mingw32/13.2.0/../../../../x86_64-w64-mingw32/lib/../lib/libmsvcrt.a(lib64_libmsvcrt_common_a-wcrtomb.o) (___lc_codepage_func)
C:/Users/DuyThanh/mingw64/bin/../lib/gcc/x86_64-w64-mingw32/13.2.0/../../../../x86_64-w64-mingw32/lib/../lib/libmsvcrt.a(libmsvcrt_defs00066.o)
                              C:/Users/DuyThanh/mingw64/bin/../lib/gcc/x86_64-w64-mingw32/13.2.0/../../../../x86_64-w64-mingw32/lib/../lib/libmsvcrt.a(lib64_libmsvcrt_common_a-wcrtomb.o) (___mb_cur_max_func)
C:/Users/DuyThanh/mingw64/bin/../lib/gcc/x86_64-w64-mingw32/13.2.0/../../../../x86_64-w64-mingw32/lib/../lib/libmsvcrt.a(libmsvcrt_defs00083.o)
                              C:/Users/DuyThanh/mingw64/bin/../lib/gcc/x86_64-w64-mingw32/13.2.0/../../../../x86_64-w64-mingw32/lib/../lib/libmsvcrt.a(lib64_libmsvcrt_common_a-acrt_iob_func.o) (__iob_func)
C:/Users/DuyThanh/mingw64/bin/../lib/gcc/x86_64-w64-mingw32/13.2.0/../../../../x86_64-w64-mingw32/lib/../lib/libmsvcrt.a(libmsvcrt_defs00114.o)
                              C:\Users\DuyThanh\AppData\Local\Temp\cclGozRv.o (__imp__access)
C:/Users/DuyThanh/mingw64/bin/../lib/gcc/x86_64-w64-mingw32/13.2.0/../../../../x86_64-w64-mingw32/lib/../lib/libmsvcrt.a(libmsvcrt_defs00124.o)
                              C:/Users/DuyThanh/mingw64/bin/../lib/gcc/x86_64-w64-mingw32/13.2.0/../../../../x86_64-w64-mingw32/lib/../lib/dllcrt2.o (_amsg_exit)
C:/Users/DuyThanh/mingw64/bin/../lib/gcc/x86_64-w64-mingw32/13.2.0/../../../../x86_64-w64-mingw32/lib/../lib/libmsvcrt.a(libmsvcrt_defs00125.o)
                              C:\Users\DuyThanh\AppData\Local\Temp\cclGozRv.o (__imp__assert)
C:/Users/DuyThanh/mingw64/bin/../lib/gcc/x86_64-w64-mingw32/13.2.0/../../../../x86_64-w64-mingw32/lib/../lib/libmsvcrt.a(libmsvcrt_defs00140.o)
                              C:\Users\DuyThanh\AppData\Local\Temp\ccsXH6CC.o (__imp__beginthreadex)
C:/Users/DuyThanh/mingw64/bin/../lib/gcc/x86_64-w64-mingw32/13.2.0/../../../../x86_64-w64-mingw32/lib/../lib/libmsvcrt.a(libmsvcrt_defs00154.o)
                              C:\Users\DuyThanh\AppData\Local\Temp\cclGozRv.o (__imp__chmod)
C:/Users/DuyThanh/mingw64/bin/../lib/gcc/x86_64-w64-mingw32/13.2.0/../../../../x86_64-w64-mingw32/lib/../lib/libmsvcrt.a(libmsvcrt_defs00202.o)
                              C:\Users\DuyThanh\AppData\Local\Temp\ccsXH6CC.o (__imp__endthreadex)
C:/Users/DuyThanh/mingw64/bin/../lib/gcc/x86_64-w64-mingw32/13.2.0/../../../../x86_64-w64-mingw32/lib/../lib/libmsvcrt.a(libmsvcrt_defs00205.o)
                              C:/Users/DuyThanh/mingw64/bin/../lib/gcc/x86_64-w64-mingw32/13.2.0/../../../../x86_64-w64-mingw32/lib/../lib/libmingwex.a(lib64_libmingwex_a-dirent.o) (_errno)
C:/Users/DuyThanh/mingw64/bin/../lib/gcc/x86_64-w64-mingw32/13.2.0/../../../../x86_64-w64-mingw32/lib/../lib/libmsvcrt.a(libmsvcrt_defs00224.o)
                              C:/Users/DuyThanh/mingw64/bin/../lib/gcc/x86_64-w64-mingw32/13.2.0/../../../../x86_64-w64-mingw32/lib/../lib/libmingw32.a(lib64_libmingw32_a-exit_wrappers.o) (__imp__exit)
C:/Users/DuyThanh/mingw64/bin/../lib/gcc/x86_64-w64-mingw32/13.2.0/../../../../x86_64-w64-mingw32/lib/../lib/libmsvcrt.a(libmsvcrt_defs00236.o)
                              C:\Users\DuyThanh\AppData\Local\Temp\cclGozRv.o (__imp__fileno)
C:/Users/DuyThanh/mingw64/bin/../lib/gcc/x86_64-w64-mingw32/13.2.0/../../../../x86_64-w64-mingw32/lib/../lib/libmsvcrt.a(libmsvcrt_defs00237.o)
                              C:/Users/DuyThanh/mingw64/bin/../lib/gcc/x86_64-w64-mingw32/13.2.0/../../../../x86_64-w64-mingw32/lib/../lib/libmingwex.a(lib64_libmingwex_a-dirent.o) (_findclose)
C:/Users/DuyThanh/mingw64/bin/../lib/gcc/x86_64-w64-mingw32/13.2.0/../../../../x86_64-w64-mingw32/lib/../lib/libmsvcrt.a(libmsvcrt_defs00242.o)
                              C:/Users/DuyThanh/mingw64/bin/../lib/gcc/x86_64-w64-mingw32/13.2.0/../../../../x86_64-w64-mingw32/lib/../lib/libmingwex.a(lib64_libmingwex_a-dirent.o) (_findfirst64)
C:/Users/DuyThanh/mingw64/bin/../lib/gcc/x86_64-w64-mingw32/13.2.0/../../../../x86_64-w64-mingw32/lib/../lib/libmsvcrt.a(libmsvcrt_defs00245.o)
                              C:/Users/DuyThanh/mingw64/bin/../lib/gcc/x86_64-w64-mingw32/13.2.0/../../../../x86_64-w64-mingw32/lib/../lib/libmingwex.a(lib64_libmingwex_a-dirent.o) (_findnext64)
C:/Users/DuyThanh/mingw64/bin/../lib/gcc/x86_64-w64-mingw32/13.2.0/../../../../x86_64-w64-mingw32/lib/../lib/libmsvcrt.a(libmsvcrt_defs00275.o)
                              C:\Users\DuyThanh\AppData\Local\Temp\cclGozRv.o (__imp__fstat64)
C:/Users/DuyThanh/mingw64/bin/../lib/gcc/x86_64-w64-mingw32/13.2.0/../../../../x86_64-w64-mingw32/lib/../lib/libmsvcrt.a(libmsvcrt_defs00282.o)
                              C:/Users/DuyThanh/mingw64/bin/../lib/gcc/x86_64-w64-mingw32/13.2.0/../../../../x86_64-w64-mingw32/lib/../lib/libmingwex.a(lib64_libmingwex_a-dirent.o) (_fullpath)
C:/Users/DuyThanh/mingw64/bin/../lib/gcc/x86_64-w64-mingw32/13.2.0/../../../../x86_64-w64-mingw32/lib/../lib/libmsvcrt.a(libmsvcrt_defs00298.o)
                              C:\Users\DuyThanh\AppData\Local\Temp\cclGozRv.o (__imp__get_osfhandle)
C:/Users/DuyThanh/mingw64/bin/../lib/gcc/x86_64-w64-mingw32/13.2.0/../../../../x86_64-w64-mingw32/lib/../lib/libmsvcrt.a(libmsvcrt_defs00314.o)
                              C:\Users\DuyThanh\AppData\Local\Temp\cclGozRv.o (getpid)
C:/Users/DuyThanh/mingw64/bin/../lib/gcc/x86_64-w64-mingw32/13.2.0/../../../../x86_64-w64-mingw32/lib/../lib/libmsvcrt.a(libmsvcrt_defs00337.o)
                              C:/Users/DuyThanh/mingw64/bin/../lib/gcc/x86_64-w64-mingw32/13.2.0/../../../../x86_64-w64-mingw32/lib/../lib/dllcrt2.o (_initterm)
C:/Users/DuyThanh/mingw64/bin/../lib/gcc/x86_64-w64-mingw32/13.2.0/../../../../x86_64-w64-mingw32/lib/../lib/libmsvcrt.a(libmsvcrt_defs00342.o)
                              C:\Users\DuyThanh\AppData\Local\Temp\cclGozRv.o (__imp__isatty)
C:/Users/DuyThanh/mingw64/bin/../lib/gcc/x86_64-w64-mingw32/13.2.0/../../../../x86_64-w64-mingw32/lib/../lib/libmsvcrt.a(libmsvcrt_defs00445.o)
                              C:\Users\DuyThanh\AppData\Local\Temp\ccsXH6CC.o (__imp__localtime64)
C:/Users/DuyThanh/mingw64/bin/../lib/gcc/x86_64-w64-mingw32/13.2.0/../../../../x86_64-w64-mingw32/lib/../lib/libmsvcrt.a(libmsvcrt_defs00446.o)
                              C:/Users/DuyThanh/mingw64/bin/../lib/gcc/x86_64-w64-mingw32/13.2.0/../../../../x86_64-w64-mingw32/lib/../lib/libmsvcrt.a(lib64_libmsvcrt_extra_a-mingw_lock.o) (_lock)
C:/Users/DuyThanh/mingw64/bin/../lib/gcc/x86_64-w64-mingw32/13.2.0/../../../../x86_64-w64-mingw32/lib/../lib/libmsvcrt.a(libmsvcrt_defs00607.o)
                              C:\Users\DuyThanh\AppData\Local\Temp\cclGozRv.o (__imp__mkdir)
C:/Users/DuyThanh/mingw64/bin/../lib/gcc/x86_64-w64-mingw32/13.2.0/../../../../x86_64-w64-mingw32/lib/../lib/libmsvcrt.a(libmsvcrt_defs00624.o)
                              C:\Users\DuyThanh\AppData\Local\Temp\cclGozRv.o (__imp__pclose)
C:/Users/DuyThanh/mingw64/bin/../lib/gcc/x86_64-w64-mingw32/13.2.0/../../../../x86_64-w64-mingw32/lib/../lib/libmsvcrt.a(libmsvcrt_defs00629.o)
                              C:\Users\DuyThanh\AppData\Local\Temp\cclGozRv.o (__imp__popen)
C:/Users/DuyThanh/mingw64/bin/../lib/gcc/x86_64-w64-mingw32/13.2.0/../../../../x86_64-w64-mingw32/lib/../lib/libmsvcrt.a(libmsvcrt_defs00683.o)
                              C:\Users\DuyThanh\AppData\Local\Temp\cclGozRv.o (__imp__setmode)
C:/Users/DuyThanh/mingw64/bin/../lib/gcc/x86_64-w64-mingw32/13.2.0/../../../../x86_64-w64-mingw32/lib/../lib/libmsvcrt.a(libmsvcrt_defs00732.o)
                              C:\Users\DuyThanh\AppData\Local\Temp\cclGozRv.o (__imp__stat64)
C:/Users/DuyThanh/mingw64/bin/../lib/gcc/x86_64-w64-mingw32/13.2.0/../../../../x86_64-w64-mingw32/lib/../lib/libmsvcrt.a(libmsvcrt_defs00741.o)
                              C:\Users\DuyThanh\AppData\Local\Temp\cclGozRv.o (__imp__strdup)
C:/Users/DuyThanh/mingw64/bin/../lib/gcc/x86_64-w64-mingw32/13.2.0/../../../../x86_64-w64-mingw32/lib/../lib/libmsvcrt.a(libmsvcrt_defs00778.o)
                              C:/Users/DuyThanh/mingw64/bin/../lib/gcc/x86_64-w64-mingw32/13.2.0/../../../../x86_64-w64-mingw32/lib/../lib/libmingwex.a(lib64_libmingwex_a-mingw_vfscanf.o) (strtoll)
C:/Users/DuyThanh/mingw64/bin/../lib/gcc/x86_64-w64-mingw32/13.2.0/../../../../x86_64-w64-mingw32/lib/../lib/libmsvcrt.a(libmsvcrt_defs00781.o)
                              C:/Users/DuyThanh/mingw64/bin/../lib/gcc/x86_64-w64-mingw32/13.2.0/../../../../x86_64-w64-mingw32/lib/../lib/libmingwex.a(lib64_libmingwex_a-mingw_vfscanf.o) (strtoull)
C:/Users/DuyThanh/mingw64/bin/../lib/gcc/x86_64-w64-mingw32/13.2.0/../../../../x86_64-w64-mingw32/lib/../lib/libmsvcrt.a(libmsvcrt_defs00833.o)
                              C:\Users\DuyThanh\AppData\Local\Temp\cclGozRv.o (__imp__unlink)
C:/Users/DuyThanh/mingw64/bin/../lib/gcc/x86_64-w64-mingw32/13.2.0/../../../../x86_64-w64-mingw32/lib/../lib/libmsvcrt.a(libmsvcrt_defs00837.o)
                              C:/Users/DuyThanh/mingw64/bin/../lib/gcc/x86_64-w64-mingw32/13.2.0/../../../../x86_64-w64-mingw32/lib/../lib/libmsvcrt.a(lib64_libmsvcrt_extra_a-mingw_lock.o) (_unlock)
C:/Users/DuyThanh/mingw64/bin/../lib/gcc/x86_64-w64-mingw32/13.2.0/../../../../x86_64-w64-mingw32/lib/../lib/libmsvcrt.a(libmsvcrt_defs01045.o)
                              C:\Users\DuyThanh\AppData\Local\Temp\cclGozRv.o (__imp__wunlink)
C:/Users/DuyThanh/mingw64/bin/../lib/gcc/x86_64-w64-mingw32/13.2.0/../../../../x86_64-w64-mingw32/lib/../lib/libmsvcrt.a(libmsvcrt_defs01054.o)
                              C:/Users/DuyThanh/mingw64/bin/../lib/gcc/x86_64-w64-mingw32/13.2.0/../../../../x86_64-w64-mingw32/lib/../lib/libmingw32.a(lib64_libmingw32_a-pseudo-reloc.o) (abort)
C:/Users/DuyThanh/mingw64/bin/../lib/gcc/x86_64-w64-mingw32/13.2.0/../../../../x86_64-w64-mingw32/lib/../lib/libmsvcrt.a(libmsvcrt_defs01067.o)
                              C:\Users\DuyThanh\AppData\Local\Temp\cclGozRv.o (atoi)
C:/Users/DuyThanh/mingw64/bin/../lib/gcc/x86_64-w64-mingw32/13.2.0/../../../../x86_64-w64-mingw32/lib/../lib/libmsvcrt.a(libmsvcrt_defs01071.o)
                              C:/Users/DuyThanh/mingw64/bin/../lib/gcc/x86_64-w64-mingw32/13.2.0/../../../../x86_64-w64-mingw32/lib/../lib/libmingw32.a(lib64_libmingw32_a-tlsthrd.o) (calloc)
C:/Users/DuyThanh/mingw64/bin/../lib/gcc/x86_64-w64-mingw32/13.2.0/../../../../x86_64-w64-mingw32/lib/../lib/libmsvcrt.a(libmsvcrt_defs01085.o)
                              C:/Users/DuyThanh/mingw64/bin/../lib/gcc/x86_64-w64-mingw32/13.2.0/../../../../x86_64-w64-mingw32/lib/../lib/libmingw32.a(lib64_libmingw32_a-exit_wrappers.o) (__imp_exit)
C:/Users/DuyThanh/mingw64/bin/../lib/gcc/x86_64-w64-mingw32/13.2.0/../../../../x86_64-w64-mingw32/lib/../lib/libmsvcrt.a(libmsvcrt_defs01089.o)
                              C:\Users\DuyThanh\AppData\Local\Temp\cclGozRv.o (fclose)
C:/Users/DuyThanh/mingw64/bin/../lib/gcc/x86_64-w64-mingw32/13.2.0/../../../../x86_64-w64-mingw32/lib/../lib/libmsvcrt.a(libmsvcrt_defs01092.o)
                              C:\Users\DuyThanh\AppData\Local\Temp\cclGozRv.o (fflush)
C:/Users/DuyThanh/mingw64/bin/../lib/gcc/x86_64-w64-mingw32/13.2.0/../../../../x86_64-w64-mingw32/lib/../lib/libmsvcrt.a(libmsvcrt_defs01093.o)
                              C:\Users\DuyThanh\AppData\Local\Temp\cclGozRv.o (fgetc)
C:/Users/DuyThanh/mingw64/bin/../lib/gcc/x86_64-w64-mingw32/13.2.0/../../../../x86_64-w64-mingw32/lib/../lib/libmsvcrt.a(libmsvcrt_defs01095.o)
                              C:\Users\DuyThanh\AppData\Local\Temp\cclGozRv.o (fgets)
C:/Users/DuyThanh/mingw64/bin/../lib/gcc/x86_64-w64-mingw32/13.2.0/../../../../x86_64-w64-mingw32/lib/../lib/libmsvcrt.a(libmsvcrt_defs01102.o)
                              C:\Users\DuyThanh\AppData\Local\Temp\cclGozRv.o (fopen)
C:/Users/DuyThanh/mingw64/bin/../lib/gcc/x86_64-w64-mingw32/13.2.0/../../../../x86_64-w64-mingw32/lib/../lib/libmsvcrt.a(libmsvcrt_defs01107.o)
                              C:/Users/DuyThanh/mingw64/bin/../lib/gcc/x86_64-w64-mingw32/13.2.0/../../../../x86_64-w64-mingw32/lib/../lib/libmingwex.a(lib64_libmingwex_a-mingw_pformat.o) (fputc)
C:/Users/DuyThanh/mingw64/bin/../lib/gcc/x86_64-w64-mingw32/13.2.0/../../../../x86_64-w64-mingw32/lib/../lib/libmsvcrt.a(libmsvcrt_defs01108.o)
                              C:\Users\DuyThanh\AppData\Local\Temp\cclGozRv.o (fputs)
C:/Users/DuyThanh/mingw64/bin/../lib/gcc/x86_64-w64-mingw32/13.2.0/../../../../x86_64-w64-mingw32/lib/../lib/libmsvcrt.a(libmsvcrt_defs01111.o)
                              C:\Users\DuyThanh\AppData\Local\Temp\cclGozRv.o (fread)
C:/Users/DuyThanh/mingw64/bin/../lib/gcc/x86_64-w64-mingw32/13.2.0/../../../../x86_64-w64-mingw32/lib/../lib/libmsvcrt.a(libmsvcrt_defs01112.o)
                              C:\Users\DuyThanh\AppData\Local\Temp\ccRJjOEn.o (free)
C:/Users/DuyThanh/mingw64/bin/../lib/gcc/x86_64-w64-mingw32/13.2.0/../../../../x86_64-w64-mingw32/lib/../lib/libmsvcrt.a(libmsvcrt_defs01121.o)
                              C:\Users\DuyThanh\AppData\Local\Temp\cclGozRv.o (fseek)
C:/Users/DuyThanh/mingw64/bin/../lib/gcc/x86_64-w64-mingw32/13.2.0/../../../../x86_64-w64-mingw32/lib/../lib/libmsvcrt.a(libmsvcrt_defs01122.o)
                              C:\Users\DuyThanh\AppData\Local\Temp\cclGozRv.o (ftell)
C:/Users/DuyThanh/mingw64/bin/../lib/gcc/x86_64-w64-mingw32/13.2.0/../../../../x86_64-w64-mingw32/lib/../lib/libmsvcrt.a(libmsvcrt_defs01125.o)
                              C:\Users\DuyThanh\AppData\Local\Temp\cclGozRv.o (fwrite)
C:/Users/DuyThanh/mingw64/bin/../lib/gcc/x86_64-w64-mingw32/13.2.0/../../../../x86_64-w64-mingw32/lib/../lib/libmsvcrt.a(libmsvcrt_defs01129.o)
                              C:/Users/DuyThanh/mingw64/bin/../lib/gcc/x86_64-w64-mingw32/13.2.0/../../../../x86_64-w64-mingw32/lib/../lib/libmingwex.a(lib64_libmingwex_a-mingw_vfscanf.o) (getc)
C:/Users/DuyThanh/mingw64/bin/../lib/gcc/x86_64-w64-mingw32/13.2.0/../../../../x86_64-w64-mingw32/lib/../lib/libmsvcrt.a(libmsvcrt_defs01131.o)
                              C:\Users\DuyThanh\AppData\Local\Temp\cclGozRv.o (getenv)
C:/Users/DuyThanh/mingw64/bin/../lib/gcc/x86_64-w64-mingw32/13.2.0/../../../../x86_64-w64-mingw32/lib/../lib/libmsvcrt.a(libmsvcrt_defs01138.o)
                              C:\Users\DuyThanh\AppData\Local\Temp\cclGozRv.o (__imp_isalnum)
C:/Users/DuyThanh/mingw64/bin/../lib/gcc/x86_64-w64-mingw32/13.2.0/../../../../x86_64-w64-mingw32/lib/../lib/libmsvcrt.a(libmsvcrt_defs01139.o)
                              C:\Users\DuyThanh\AppData\Local\Temp\cclGozRv.o (__imp_isalpha)
C:/Users/DuyThanh/mingw64/bin/../lib/gcc/x86_64-w64-mingw32/13.2.0/../../../../x86_64-w64-mingw32/lib/../lib/libmsvcrt.a(libmsvcrt_defs01145.o)
                              C:\Users\DuyThanh\AppData\Local\Temp\cclGozRv.o (__imp_isprint)
C:/Users/DuyThanh/mingw64/bin/../lib/gcc/x86_64-w64-mingw32/13.2.0/../../../../x86_64-w64-mingw32/lib/../lib/libmsvcrt.a(libmsvcrt_defs01147.o)
                              C:/Users/DuyThanh/mingw64/bin/../lib/gcc/x86_64-w64-mingw32/13.2.0/../../../../x86_64-w64-mingw32/lib/../lib/libmingwex.a(lib64_libmingwex_a-mingw_vfscanf.o) (isspace)
C:/Users/DuyThanh/mingw64/bin/../lib/gcc/x86_64-w64-mingw32/13.2.0/../../../../x86_64-w64-mingw32/lib/../lib/libmsvcrt.a(libmsvcrt_defs01162.o)
                              C:/Users/DuyThanh/mingw64/bin/../lib/gcc/x86_64-w64-mingw32/13.2.0/../../../../x86_64-w64-mingw32/lib/../lib/libmingwex.a(lib64_libmingwex_a-mingw_vfscanf.o) (isxdigit)
C:/Users/DuyThanh/mingw64/bin/../lib/gcc/x86_64-w64-mingw32/13.2.0/../../../../x86_64-w64-mingw32/lib/../lib/libmsvcrt.a(libmsvcrt_defs01166.o)
                              C:/Users/DuyThanh/mingw64/bin/../lib/gcc/x86_64-w64-mingw32/13.2.0/../../../../x86_64-w64-mingw32/lib/../lib/libmingwex.a(lib64_libmingwex_a-mingw_vfscanf.o) (localeconv)
C:/Users/DuyThanh/mingw64/bin/../lib/gcc/x86_64-w64-mingw32/13.2.0/../../../../x86_64-w64-mingw32/lib/../lib/libmsvcrt.a(libmsvcrt_defs01173.o)
                              C:\Users\DuyThanh\AppData\Local\Temp\ccRJjOEn.o (malloc)
C:/Users/DuyThanh/mingw64/bin/../lib/gcc/x86_64-w64-mingw32/13.2.0/../../../../x86_64-w64-mingw32/lib/../lib/libmsvcrt.a(libmsvcrt_defs01181.o)
                              C:\Users\DuyThanh\AppData\Local\Temp\cclGozRv.o (memchr)
C:/Users/DuyThanh/mingw64/bin/../lib/gcc/x86_64-w64-mingw32/13.2.0/../../../../x86_64-w64-mingw32/lib/../lib/libmsvcrt.a(libmsvcrt_defs01182.o)
                              C:\Users\DuyThanh\AppData\Local\Temp\cclGozRv.o (memcmp)
C:/Users/DuyThanh/mingw64/bin/../lib/gcc/x86_64-w64-mingw32/13.2.0/../../../../x86_64-w64-mingw32/lib/../lib/libmsvcrt.a(libmsvcrt_defs01183.o)
                              C:\Users\DuyThanh\AppData\Local\Temp\cclGozRv.o (memcpy)
C:/Users/DuyThanh/mingw64/bin/../lib/gcc/x86_64-w64-mingw32/13.2.0/../../../../x86_64-w64-mingw32/lib/../lib/libmsvcrt.a(libmsvcrt_defs01184.o)
                              C:\Users\DuyThanh\AppData\Local\Temp\cclGozRv.o (memmove)
C:/Users/DuyThanh/mingw64/bin/../lib/gcc/x86_64-w64-mingw32/13.2.0/../../../../x86_64-w64-mingw32/lib/../lib/libmsvcrt.a(libmsvcrt_defs01185.o)
                              C:\Users\DuyThanh\AppData\Local\Temp\cclGozRv.o (memset)
C:/Users/DuyThanh/mingw64/bin/../lib/gcc/x86_64-w64-mingw32/13.2.0/../../../../x86_64-w64-mingw32/lib/../lib/libmsvcrt.a(libmsvcrt_defs01203.o)
                              C:\Users\DuyThanh\AppData\Local\Temp\cclGozRv.o (realloc)
C:/Users/DuyThanh/mingw64/bin/../lib/gcc/x86_64-w64-mingw32/13.2.0/../../../../x86_64-w64-mingw32/lib/../lib/libmsvcrt.a(libmsvcrt_defs01206.o)
                              C:\Users\DuyThanh\AppData\Local\Temp\cclGozRv.o (rewind)
C:/Users/DuyThanh/mingw64/bin/../lib/gcc/x86_64-w64-mingw32/13.2.0/../../../../x86_64-w64-mingw32/lib/../lib/libmsvcrt.a(libmsvcrt_defs01212.o)
                              C:\Users\DuyThanh\AppData\Local\Temp\cclGozRv.o (setvbuf)
C:/Users/DuyThanh/mingw64/bin/../lib/gcc/x86_64-w64-mingw32/13.2.0/../../../../x86_64-w64-mingw32/lib/../lib/libmsvcrt.a(libmsvcrt_defs01228.o)
                              C:\Users\DuyThanh\AppData\Local\Temp\cclGozRv.o (strchr)
C:/Users/DuyThanh/mingw64/bin/../lib/gcc/x86_64-w64-mingw32/13.2.0/../../../../x86_64-w64-mingw32/lib/../lib/libmsvcrt.a(libmsvcrt_defs01229.o)
                              C:\Users\DuyThanh\AppData\Local\Temp\cclGozRv.o (strcmp)
C:/Users/DuyThanh/mingw64/bin/../lib/gcc/x86_64-w64-mingw32/13.2.0/../../../../x86_64-w64-mingw32/lib/../lib/libmsvcrt.a(libmsvcrt_defs01231.o)
                              C:\Users\DuyThanh\AppData\Local\Temp\cclGozRv.o (strcpy)
C:/Users/DuyThanh/mingw64/bin/../lib/gcc/x86_64-w64-mingw32/13.2.0/../../../../x86_64-w64-mingw32/lib/../lib/libmsvcrt.a(libmsvcrt_defs01233.o)
                              C:\Users\DuyThanh\AppData\Local\Temp\ccsXH6CC.o (strcspn)
C:/Users/DuyThanh/mingw64/bin/../lib/gcc/x86_64-w64-mingw32/13.2.0/../../../../x86_64-w64-mingw32/lib/../lib/libmsvcrt.a(libmsvcrt_defs01234.o)
                              C:/Users/DuyThanh/mingw64/bin/../lib/gcc/x86_64-w64-mingw32/13.2.0/../../../../x86_64-w64-mingw32/lib/../lib/libmingwex.a(lib64_libmingwex_a-mingw_pformat.o) (strerror)
C:/Users/DuyThanh/mingw64/bin/../lib/gcc/x86_64-w64-mingw32/13.2.0/../../../../x86_64-w64-mingw32/lib/../lib/libmsvcrt.a(libmsvcrt_defs01236.o)
                              C:\Users\DuyThanh\AppData\Local\Temp\ccRJjOEn.o (strlen)
C:/Users/DuyThanh/mingw64/bin/../lib/gcc/x86_64-w64-mingw32/13.2.0/../../../../x86_64-w64-mingw32/lib/../lib/libmsvcrt.a(libmsvcrt_defs01239.o)
                              C:\Users\DuyThanh\AppData\Local\Temp\cclGozRv.o (strncmp)
C:/Users/DuyThanh/mingw64/bin/../lib/gcc/x86_64-w64-mingw32/13.2.0/../../../../x86_64-w64-mingw32/lib/../lib/libmsvcrt.a(libmsvcrt_defs01240.o)
                              C:/Users/DuyThanh/mingw64/bin/../lib/gcc/x86_64-w64-mingw32/13.2.0/../../../../x86_64-w64-mingw32/lib/../lib/libmingwex.a(lib64_libmingwex_a-dirent.o) (strncpy)
C:/Users/DuyThanh/mingw64/bin/../lib/gcc/x86_64-w64-mingw32/13.2.0/../../../../x86_64-w64-mingw32/lib/../lib/libmsvcrt.a(libmsvcrt_defs01243.o)
                              C:\Users\DuyThanh\AppData\Local\Temp\ccsXH6CC.o (strrchr)
C:/Users/DuyThanh/mingw64/bin/../lib/gcc/x86_64-w64-mingw32/13.2.0/../../../../x86_64-w64-mingw32/lib/../lib/libmsvcrt.a(libmsvcrt_defs01244.o)
                              C:\Users\DuyThanh\AppData\Local\Temp\ccsXH6CC.o (strspn)
C:/Users/DuyThanh/mingw64/bin/../lib/gcc/x86_64-w64-mingw32/13.2.0/../../../../x86_64-w64-mingw32/lib/../lib/libmsvcrt.a(libmsvcrt_defs01245.o)
                              C:\Users\DuyThanh\AppData\Local\Temp\cclGozRv.o (strstr)
C:/Users/DuyThanh/mingw64/bin/../lib/gcc/x86_64-w64-mingw32/13.2.0/../../../../x86_64-w64-mingw32/lib/../lib/libmsvcrt.a(libmsvcrt_defs01249.o)
                              C:\Users\DuyThanh\AppData\Local\Temp\cclGozRv.o (strtol)
C:/Users/DuyThanh/mingw64/bin/../lib/gcc/x86_64-w64-mingw32/13.2.0/../../../../x86_64-w64-mingw32/lib/../lib/libmsvcrt.a(libmsvcrt_defs01250.o)
                              C:/Users/DuyThanh/mingw64/bin/../lib/gcc/x86_64-w64-mingw32/13.2.0/../../../../x86_64-w64-mingw32/lib/../lib/libmingwex.a(lib64_libmingwex_a-mingw_vfscanf.o) (strtoul)
C:/Users/DuyThanh/mingw64/bin/../lib/gcc/x86_64-w64-mingw32/13.2.0/../../../../x86_64-w64-mingw32/lib/../lib/libmsvcrt.a(libmsvcrt_defs01259.o)
                              C:\Users\DuyThanh\AppData\Local\Temp\cclGozRv.o (system)
C:/Users/DuyThanh/mingw64/bin/../lib/gcc/x86_64-w64-mingw32/13.2.0/../../../../x86_64-w64-mingw32/lib/../lib/libmsvcrt.a(libmsvcrt_defs01267.o)
                              C:/Users/DuyThanh/mingw64/bin/../lib/gcc/x86_64-w64-mingw32/13.2.0/../../../../x86_64-w64-mingw32/lib/../lib/libmingwex.a(lib64_libmingwex_a-mingw_vfscanf.o) (tolower)
C:/Users/DuyThanh/mingw64/bin/../lib/gcc/x86_64-w64-mingw32/13.2.0/../../../../x86_64-w64-mingw32/lib/../lib/libmsvcrt.a(libmsvcrt_defs01273.o)
                              C:/Users/DuyThanh/mingw64/bin/../lib/gcc/x86_64-w64-mingw32/13.2.0/../../../../x86_64-w64-mingw32/lib/../lib/libmingwex.a(lib64_libmingwex_a-mingw_vfscanf.o) (ungetc)
C:/Users/DuyThanh/mingw64/bin/../lib/gcc/x86_64-w64-mingw32/13.2.0/../../../../x86_64-w64-mingw32/lib/../lib/libmsvcrt.a(libmsvcrt_defs01274.o)
                              C:/Users/DuyThanh/mingw64/bin/../lib/gcc/x86_64-w64-mingw32/13.2.0/../../../../x86_64-w64-mingw32/lib/../lib/libmingw32.a(lib64_libmingw32_a-pseudo-reloc.o) (vfprintf)
C:/Users/DuyThanh/mingw64/bin/../lib/gcc/x86_64-w64-mingw32/13.2.0/../../../../x86_64-w64-mingw32/lib/../lib/libmsvcrt.a(libmsvcrt_defs01300.o)
                              C:/Users/DuyThanh/mingw64/bin/../lib/gcc/x86_64-w64-mingw32/13.2.0/../../../../x86_64-w64-mingw32/lib/../lib/libmingwex.a(lib64_libmingwex_a-mingw_pformat.o) (wcslen)
C:/Users/DuyThanh/mingw64/bin/../lib/gcc/x86_64-w64-mingw32/13.2.0/../../../../x86_64-w64-mingw32/lib/../lib/libmsvcrt.a(libmsvcrt_defh.o)
                              C:/Users/DuyThanh/mingw64/bin/../lib/gcc/x86_64-w64-mingw32/13.2.0/../../../../x86_64-w64-mingw32/lib/../lib/libmsvcrt.a(libmsvcrt_defs00063.o) (_head_lib64_libmsvcrt_def_a)
C:/Users/DuyThanh/mingw64/bin/../lib/gcc/x86_64-w64-mingw32/13.2.0/../../../../x86_64-w64-mingw32/lib/../lib/libmsvcrt.a(libmsvcrt_deft.o)
                              C:/Users/DuyThanh/mingw64/bin/../lib/gcc/x86_64-w64-mingw32/13.2.0/../../../../x86_64-w64-mingw32/lib/../lib/libmsvcrt.a(libmsvcrt_defh.o) (__lib64_libmsvcrt_def_a_iname)
C:/Users/DuyThanh/mingw64/bin/../lib/gcc/x86_64-w64-mingw32/13.2.0/../../../../x86_64-w64-mingw32/lib/../lib/libkernel32.a(libkernel32s01563.o)
                              C:\Users\DuyThanh\AppData\Local\Temp\ccsXH6CC.o (WriteFile)
C:/Users/DuyThanh/mingw64/bin/../lib/gcc/x86_64-w64-mingw32/13.2.0/../../../../x86_64-w64-mingw32/lib/../lib/libkernel32.a(libkernel32s01562.o)
                              C:\Users\DuyThanh\AppData\Local\Temp\cclGozRv.o (__imp_WriteConsoleW)
C:/Users/DuyThanh/mingw64/bin/../lib/gcc/x86_64-w64-mingw32/13.2.0/../../../../x86_64-w64-mingw32/lib/../lib/libkernel32.a(libkernel32s01543.o)
                              C:\Users\DuyThanh\AppData\Local\Temp\ccsXH6CC.o (WideCharToMultiByte)
C:/Users/DuyThanh/mingw64/bin/../lib/gcc/x86_64-w64-mingw32/13.2.0/../../../../x86_64-w64-mingw32/lib/../lib/libkernel32.a(libkernel32s01500.o)
                              C:\Users\DuyThanh\AppData\Local\Temp\ccsXH6CC.o (WaitForSingleObjectEx)
C:/Users/DuyThanh/mingw64/bin/../lib/gcc/x86_64-w64-mingw32/13.2.0/../../../../x86_64-w64-mingw32/lib/../lib/libkernel32.a(libkernel32s01499.o)
                              C:\Users\DuyThanh\AppData\Local\Temp\ccsXH6CC.o (WaitForSingleObject)
C:/Users/DuyThanh/mingw64/bin/../lib/gcc/x86_64-w64-mingw32/13.2.0/../../../../x86_64-w64-mingw32/lib/../lib/libkernel32.a(libkernel32s01490.o)
                              C:/Users/DuyThanh/mingw64/bin/../lib/gcc/x86_64-w64-mingw32/13.2.0/../../../../x86_64-w64-mingw32/lib/../lib/libmingw32.a(lib64_libmingw32_a-pseudo-reloc.o) (__imp_VirtualQuery)
C:/Users/DuyThanh/mingw64/bin/../lib/gcc/x86_64-w64-mingw32/13.2.0/../../../../x86_64-w64-mingw32/lib/../lib/libkernel32.a(libkernel32s01488.o)
                              C:/Users/DuyThanh/mingw64/bin/../lib/gcc/x86_64-w64-mingw32/13.2.0/../../../../x86_64-w64-mingw32/lib/../lib/libmingw32.a(lib64_libmingw32_a-pseudo-reloc.o) (__imp_VirtualProtect)
C:/Users/DuyThanh/mingw64/bin/../lib/gcc/x86_64-w64-mingw32/13.2.0/../../../../x86_64-w64-mingw32/lib/../lib/libkernel32.a(libkernel32s01458.o)
                              C:\Users\DuyThanh\AppData\Local\Temp\ccsXH6CC.o (UnmapViewOfFile)
C:/Users/DuyThanh/mingw64/bin/../lib/gcc/x86_64-w64-mingw32/13.2.0/../../../../x86_64-w64-mingw32/lib/../lib/libkernel32.a(libkernel32s01457.o)
                              C:\Users\DuyThanh\AppData\Local\Temp\ccsXH6CC.o (UnlockFileEx)
C:/Users/DuyThanh/mingw64/bin/../lib/gcc/x86_64-w64-mingw32/13.2.0/../../../../x86_64-w64-mingw32/lib/../lib/libkernel32.a(libkernel32s01456.o)
                              C:\Users\DuyThanh\AppData\Local\Temp\ccsXH6CC.o (UnlockFile)
C:/Users/DuyThanh/mingw64/bin/../lib/gcc/x86_64-w64-mingw32/13.2.0/../../../../x86_64-w64-mingw32/lib/../lib/libkernel32.a(libkernel32s01448.o)
                              C:\Users\DuyThanh\AppData\Local\Temp\ccsXH6CC.o (__imp_TryEnterCriticalSection)
C:/Users/DuyThanh/mingw64/bin/../lib/gcc/x86_64-w64-mingw32/13.2.0/../../../../x86_64-w64-mingw32/lib/../lib/libkernel32.a(libkernel32s01441.o)
                              C:/Users/DuyThanh/mingw64/bin/../lib/gcc/x86_64-w64-mingw32/13.2.0/../../../../x86_64-w64-mingw32/lib/../lib/libmingw32.a(lib64_libmingw32_a-tlsthrd.o) (__imp_TlsGetValue)
C:/Users/DuyThanh/mingw64/bin/../lib/gcc/x86_64-w64-mingw32/13.2.0/../../../../x86_64-w64-mingw32/lib/../lib/libkernel32.a(libkernel32s01417.o)
                              C:\Users\DuyThanh\AppData\Local\Temp\ccsXH6CC.o (SystemTimeToFileTime)
C:/Users/DuyThanh/mingw64/bin/../lib/gcc/x86_64-w64-mingw32/13.2.0/../../../../x86_64-w64-mingw32/lib/../lib/libkernel32.a(libkernel32s01406.o)
                              C:\Users\DuyThanh\AppData\Local\Temp\ccsXH6CC.o (Sleep)
C:/Users/DuyThanh/mingw64/bin/../lib/gcc/x86_64-w64-mingw32/13.2.0/../../../../x86_64-w64-mingw32/lib/../lib/libkernel32.a(libkernel32s01320.o)
                              C:\Users\DuyThanh\AppData\Local\Temp\cclGozRv.o (__imp_SetFileTime)
C:/Users/DuyThanh/mingw64/bin/../lib/gcc/x86_64-w64-mingw32/13.2.0/../../../../x86_64-w64-mingw32/lib/../lib/libkernel32.a(libkernel32s01316.o)
                              C:\Users\DuyThanh\AppData\Local\Temp\ccsXH6CC.o (SetFilePointer)
C:/Users/DuyThanh/mingw64/bin/../lib/gcc/x86_64-w64-mingw32/13.2.0/../../../../x86_64-w64-mingw32/lib/../lib/libkernel32.a(libkernel32s01297.o)
                              C:\Users\DuyThanh\AppData\Local\Temp\ccsXH6CC.o (SetEndOfFile)
C:/Users/DuyThanh/mingw64/bin/../lib/gcc/x86_64-w64-mingw32/13.2.0/../../../../x86_64-w64-mingw32/lib/../lib/libkernel32.a(libkernel32s01290.o)
                              C:\Users\DuyThanh\AppData\Local\Temp\cclGozRv.o (__imp_SetCurrentDirectoryW)
C:/Users/DuyThanh/mingw64/bin/../lib/gcc/x86_64-w64-mingw32/13.2.0/../../../../x86_64-w64-mingw32/lib/../lib/libkernel32.a(libkernel32s01283.o)
                              C:\Users\DuyThanh\AppData\Local\Temp\cclGozRv.o (__imp_SetConsoleTextAttribute)
C:/Users/DuyThanh/mingw64/bin/../lib/gcc/x86_64-w64-mingw32/13.2.0/../../../../x86_64-w64-mingw32/lib/../lib/libkernel32.a(libkernel32s01274.o)
                              C:\Users\DuyThanh\AppData\Local\Temp\cclGozRv.o (__imp_SetConsoleMode)
C:/Users/DuyThanh/mingw64/bin/../lib/gcc/x86_64-w64-mingw32/13.2.0/../../../../x86_64-w64-mingw32/lib/../lib/libkernel32.a(libkernel32s01258.o)
                              C:\Users\DuyThanh\AppData\Local\Temp\cclGozRv.o (__imp_SetConsoleCtrlHandler)
C:/Users/DuyThanh/mingw64/bin/../lib/gcc/x86_64-w64-mingw32/13.2.0/../../../../x86_64-w64-mingw32/lib/../lib/libkernel32.a(libkernel32s01167.o)
                              C:\Users\DuyThanh\AppData\Local\Temp\ccsXH6CC.o (ReadFile)
C:/Users/DuyThanh/mingw64/bin/../lib/gcc/x86_64-w64-mingw32/13.2.0/../../../../x86_64-w64-mingw32/lib/../lib/libkernel32.a(libkernel32s01164.o)
                              C:\Users\DuyThanh\AppData\Local\Temp\cclGozRv.o (__imp_ReadConsoleW)
C:/Users/DuyThanh/mingw64/bin/../lib/gcc/x86_64-w64-mingw32/13.2.0/../../../../x86_64-w64-mingw32/lib/../lib/libkernel32.a(libkernel32s01128.o)
                              C:\Users\DuyThanh\AppData\Local\Temp\ccsXH6CC.o (QueryPerformanceCounter)
C:/Users/DuyThanh/mingw64/bin/../lib/gcc/x86_64-w64-mingw32/13.2.0/../../../../x86_64-w64-mingw32/lib/../lib/libkernel32.a(libkernel32s01076.o)
                              C:\Users\DuyThanh\AppData\Local\Temp\ccsXH6CC.o (OutputDebugStringW)
C:/Users/DuyThanh/mingw64/bin/../lib/gcc/x86_64-w64-mingw32/13.2.0/../../../../x86_64-w64-mingw32/lib/../lib/libkernel32.a(libkernel32s01075.o)
                              C:\Users\DuyThanh\AppData\Local\Temp\ccsXH6CC.o (OutputDebugStringA)
C:/Users/DuyThanh/mingw64/bin/../lib/gcc/x86_64-w64-mingw32/13.2.0/../../../../x86_64-w64-mingw32/lib/../lib/libkernel32.a(libkernel32s01033.o)
                              C:\Users\DuyThanh\AppData\Local\Temp\ccsXH6CC.o (MultiByteToWideChar)
C:/Users/DuyThanh/mingw64/bin/../lib/gcc/x86_64-w64-mingw32/13.2.0/../../../../x86_64-w64-mingw32/lib/../lib/libkernel32.a(libkernel32s01016.o)
                              C:\Users\DuyThanh\AppData\Local\Temp\ccsXH6CC.o (MapViewOfFile)
C:/Users/DuyThanh/mingw64/bin/../lib/gcc/x86_64-w64-mingw32/13.2.0/../../../../x86_64-w64-mingw32/lib/../lib/libkernel32.a(libkernel32s01012.o)
                              C:\Users\DuyThanh\AppData\Local\Temp\ccsXH6CC.o (LockFileEx)
C:/Users/DuyThanh/mingw64/bin/../lib/gcc/x86_64-w64-mingw32/13.2.0/../../../../x86_64-w64-mingw32/lib/../lib/libkernel32.a(libkernel32s01011.o)
                              C:\Users\DuyThanh\AppData\Local\Temp\ccsXH6CC.o (LockFile)
C:/Users/DuyThanh/mingw64/bin/../lib/gcc/x86_64-w64-mingw32/13.2.0/../../../../x86_64-w64-mingw32/lib/../lib/libkernel32.a(libkernel32s00999.o)
                              C:\Users\DuyThanh\AppData\Local\Temp\ccsXH6CC.o (LocalFree)
C:/Users/DuyThanh/mingw64/bin/../lib/gcc/x86_64-w64-mingw32/13.2.0/../../../../x86_64-w64-mingw32/lib/../lib/libkernel32.a(libkernel32s00988.o)
                              C:\Users\DuyThanh\AppData\Local\Temp\ccsXH6CC.o (LoadLibraryW)
C:/Users/DuyThanh/mingw64/bin/../lib/gcc/x86_64-w64-mingw32/13.2.0/../../../../x86_64-w64-mingw32/lib/../lib/libkernel32.a(libkernel32s00985.o)
                              C:\Users\DuyThanh\AppData\Local\Temp\ccsXH6CC.o (LoadLibraryA)
C:/Users/DuyThanh/mingw64/bin/../lib/gcc/x86_64-w64-mingw32/13.2.0/../../../../x86_64-w64-mingw32/lib/../lib/libkernel32.a(libkernel32s00981.o)
                              C:\Users\DuyThanh\AppData\Local\Temp\ccsXH6CC.o (__imp_LeaveCriticalSection)
C:/Users/DuyThanh/mingw64/bin/../lib/gcc/x86_64-w64-mingw32/13.2.0/../../../../x86_64-w64-mingw32/lib/../lib/libkernel32.a(libkernel32s00916.o)
                              C:/Users/DuyThanh/mingw64/bin/../lib/gcc/x86_64-w64-mingw32/13.2.0/../../../../x86_64-w64-mingw32/lib/../lib/libmsvcrt.a(lib64_libmsvcrt_common_a-mbrtowc.o) (__imp_IsDBCSLeadByteEx)
C:/Users/DuyThanh/mingw64/bin/../lib/gcc/x86_64-w64-mingw32/13.2.0/../../../../x86_64-w64-mingw32/lib/../lib/libkernel32.a(libkernel32s00889.o)
                              C:\Users\DuyThanh\AppData\Local\Temp\ccsXH6CC.o (__imp_InitializeCriticalSection)
C:/Users/DuyThanh/mingw64/bin/../lib/gcc/x86_64-w64-mingw32/13.2.0/../../../../x86_64-w64-mingw32/lib/../lib/libkernel32.a(libkernel32s00876.o)
                              C:\Users\DuyThanh\AppData\Local\Temp\ccsXH6CC.o (HeapValidate)
C:/Users/DuyThanh/mingw64/bin/../lib/gcc/x86_64-w64-mingw32/13.2.0/../../../../x86_64-w64-mingw32/lib/../lib/libkernel32.a(libkernel32s00872.o)
                              C:\Users\DuyThanh\AppData\Local\Temp\ccsXH6CC.o (HeapSize)
C:/Users/DuyThanh/mingw64/bin/../lib/gcc/x86_64-w64-mingw32/13.2.0/../../../../x86_64-w64-mingw32/lib/../lib/libkernel32.a(libkernel32s00870.o)
                              C:\Users\DuyThanh\AppData\Local\Temp\ccsXH6CC.o (HeapReAlloc)
C:/Users/DuyThanh/mingw64/bin/../lib/gcc/x86_64-w64-mingw32/13.2.0/../../../../x86_64-w64-mingw32/lib/../lib/libkernel32.a(libkernel32s00866.o)
                              C:\Users\DuyThanh\AppData\Local\Temp\ccsXH6CC.o (HeapFree)
C:/Users/DuyThanh/mingw64/bin/../lib/gcc/x86_64-w64-mingw32/13.2.0/../../../../x86_64-w64-mingw32/lib/../lib/libkernel32.a(libkernel32s00864.o)
                              C:\Users\DuyThanh\AppData\Local\Temp\ccsXH6CC.o (HeapDestroy)
C:/Users/DuyThanh/mingw64/bin/../lib/gcc/x86_64-w64-mingw32/13.2.0/../../../../x86_64-w64-mingw32/lib/../lib/libkernel32.a(libkernel32s00862.o)
                              C:\Users\DuyThanh\AppData\Local\Temp\ccsXH6CC.o (HeapCreate)
C:/Users/DuyThanh/mingw64/bin/../lib/gcc/x86_64-w64-mingw32/13.2.0/../../../../x86_64-w64-mingw32/lib/../lib/libkernel32.a(libkernel32s00861.o)
                              C:\Users\DuyThanh\AppData\Local\Temp\ccsXH6CC.o (HeapCompact)
C:/Users/DuyThanh/mingw64/bin/../lib/gcc/x86_64-w64-mingw32/13.2.0/../../../../x86_64-w64-mingw32/lib/../lib/libkernel32.a(libkernel32s00860.o)
                              C:\Users\DuyThanh\AppData\Local\Temp\ccsXH6CC.o (HeapAlloc)
C:/Users/DuyThanh/mingw64/bin/../lib/gcc/x86_64-w64-mingw32/13.2.0/../../../../x86_64-w64-mingw32/lib/../lib/libkernel32.a(libkernel32s00796.o)
                              C:\Users\DuyThanh\AppData\Local\Temp\ccsXH6CC.o (GetTickCount)
C:/Users/DuyThanh/mingw64/bin/../lib/gcc/x86_64-w64-mingw32/13.2.0/../../../../x86_64-w64-mingw32/lib/../lib/libkernel32.a(libkernel32s00779.o)
                              C:\Users\DuyThanh\AppData\Local\Temp\ccsXH6CC.o (GetTempPathW)
C:/Users/DuyThanh/mingw64/bin/../lib/gcc/x86_64-w64-mingw32/13.2.0/../../../../x86_64-w64-mingw32/lib/../lib/libkernel32.a(libkernel32s00778.o)
                              C:\Users\DuyThanh\AppData\Local\Temp\ccsXH6CC.o (GetTempPathA)
C:/Users/DuyThanh/mingw64/bin/../lib/gcc/x86_64-w64-mingw32/13.2.0/../../../../x86_64-w64-mingw32/lib/../lib/libkernel32.a(libkernel32s00766.o)
                              C:\Users\DuyThanh\AppData\Local\Temp\ccsXH6CC.o (GetSystemTimeAsFileTime)
C:/Users/DuyThanh/mingw64/bin/../lib/gcc/x86_64-w64-mingw32/13.2.0/../../../../x86_64-w64-mingw32/lib/../lib/libkernel32.a(libkernel32s00764.o)
                              C:\Users\DuyThanh\AppData\Local\Temp\ccsXH6CC.o (GetSystemTime)
C:/Users/DuyThanh/mingw64/bin/../lib/gcc/x86_64-w64-mingw32/13.2.0/../../../../x86_64-w64-mingw32/lib/../lib/libkernel32.a(libkernel32s00760.o)
                              C:\Users\DuyThanh\AppData\Local\Temp\ccsXH6CC.o (GetSystemInfo)
C:/Users/DuyThanh/mingw64/bin/../lib/gcc/x86_64-w64-mingw32/13.2.0/../../../../x86_64-w64-mingw32/lib/../lib/libkernel32.a(libkernel32s00743.o)
                              C:\Users\DuyThanh\AppData\Local\Temp\cclGozRv.o (__imp_GetStdHandle)
C:/Users/DuyThanh/mingw64/bin/../lib/gcc/x86_64-w64-mingw32/13.2.0/../../../../x86_64-w64-mingw32/lib/../lib/libkernel32.a(libkernel32s00713.o)
                              C:\Users\DuyThanh\AppData\Local\Temp\ccsXH6CC.o (GetProcessHeap)
C:/Users/DuyThanh/mingw64/bin/../lib/gcc/x86_64-w64-mingw32/13.2.0/../../../../x86_64-w64-mingw32/lib/../lib/libkernel32.a(libkernel32s00707.o)
                              C:\Users\DuyThanh\AppData\Local\Temp\ccsXH6CC.o (GetProcAddress)
C:/Users/DuyThanh/mingw64/bin/../lib/gcc/x86_64-w64-mingw32/13.2.0/../../../../x86_64-w64-mingw32/lib/../lib/libkernel32.a(libkernel32s00627.o)
                              C:\Users\DuyThanh\AppData\Local\Temp\ccsXH6CC.o (GetLastError)
C:/Users/DuyThanh/mingw64/bin/../lib/gcc/x86_64-w64-mingw32/13.2.0/../../../../x86_64-w64-mingw32/lib/../lib/libkernel32.a(libkernel32s00620.o)
                              C:\Users\DuyThanh\AppData\Local\Temp\ccsXH6CC.o (GetFullPathNameW)
C:/Users/DuyThanh/mingw64/bin/../lib/gcc/x86_64-w64-mingw32/13.2.0/../../../../x86_64-w64-mingw32/lib/../lib/libkernel32.a(libkernel32s00617.o)
                              C:\Users\DuyThanh\AppData\Local\Temp\ccsXH6CC.o (GetFullPathNameA)
C:/Users/DuyThanh/mingw64/bin/../lib/gcc/x86_64-w64-mingw32/13.2.0/../../../../x86_64-w64-mingw32/lib/../lib/libkernel32.a(libkernel32s00609.o)
                              C:\Users\DuyThanh\AppData\Local\Temp\cclGozRv.o (__imp_GetFileType)
C:/Users/DuyThanh/mingw64/bin/../lib/gcc/x86_64-w64-mingw32/13.2.0/../../../../x86_64-w64-mingw32/lib/../lib/libkernel32.a(libkernel32s00606.o)
                              C:\Users\DuyThanh\AppData\Local\Temp\ccsXH6CC.o (GetFileSize)
C:/Users/DuyThanh/mingw64/bin/../lib/gcc/x86_64-w64-mingw32/13.2.0/../../../../x86_64-w64-mingw32/lib/../lib/libkernel32.a(libkernel32s00600.o)
                              C:\Users\DuyThanh\AppData\Local\Temp\ccsXH6CC.o (GetFileAttributesW)
C:/Users/DuyThanh/mingw64/bin/../lib/gcc/x86_64-w64-mingw32/13.2.0/../../../../x86_64-w64-mingw32/lib/../lib/libkernel32.a(libkernel32s00597.o)
                              C:\Users\DuyThanh\AppData\Local\Temp\ccsXH6CC.o (GetFileAttributesExW)
C:/Users/DuyThanh/mingw64/bin/../lib/gcc/x86_64-w64-mingw32/13.2.0/../../../../x86_64-w64-mingw32/lib/../lib/libkernel32.a(libkernel32s00595.o)
                              C:\Users\DuyThanh\AppData\Local\Temp\ccsXH6CC.o (GetFileAttributesA)
C:/Users/DuyThanh/mingw64/bin/../lib/gcc/x86_64-w64-mingw32/13.2.0/../../../../x86_64-w64-mingw32/lib/../lib/libkernel32.a(libkernel32s00569.o)
                              C:\Users\DuyThanh\AppData\Local\Temp\ccsXH6CC.o (GetDiskFreeSpaceW)
C:/Users/DuyThanh/mingw64/bin/../lib/gcc/x86_64-w64-mingw32/13.2.0/../../../../x86_64-w64-mingw32/lib/../lib/libkernel32.a(libkernel32s00566.o)
                              C:\Users\DuyThanh\AppData\Local\Temp\ccsXH6CC.o (GetDiskFreeSpaceA)
C:/Users/DuyThanh/mingw64/bin/../lib/gcc/x86_64-w64-mingw32/13.2.0/../../../../x86_64-w64-mingw32/lib/../lib/libkernel32.a(libkernel32s00554.o)
                              C:\Users\DuyThanh\AppData\Local\Temp\ccsXH6CC.o (__imp_GetCurrentThreadId)
C:/Users/DuyThanh/mingw64/bin/../lib/gcc/x86_64-w64-mingw32/13.2.0/../../../../x86_64-w64-mingw32/lib/../lib/libkernel32.a(libkernel32s00550.o)
                              C:\Users\DuyThanh\AppData\Local\Temp\ccsXH6CC.o (GetCurrentProcessId)
C:/Users/DuyThanh/mingw64/bin/../lib/gcc/x86_64-w64-mingw32/13.2.0/../../../../x86_64-w64-mingw32/lib/../lib/libkernel32.a(libkernel32s00549.o)
                              C:\Users\DuyThanh\AppData\Local\Temp\cclGozRv.o (__imp_GetCurrentProcess)
C:/Users/DuyThanh/mingw64/bin/../lib/gcc/x86_64-w64-mingw32/13.2.0/../../../../x86_64-w64-mingw32/lib/../lib/libkernel32.a(libkernel32s00528.o)
                              C:\Users\DuyThanh\AppData\Local\Temp\cclGozRv.o (__imp_GetConsoleScreenBufferInfo)
C:/Users/DuyThanh/mingw64/bin/../lib/gcc/x86_64-w64-mingw32/13.2.0/../../../../x86_64-w64-mingw32/lib/../lib/libkernel32.a(libkernel32s00522.o)
                              C:\Users\DuyThanh\AppData\Local\Temp\cclGozRv.o (__imp_GetConsoleMode)
C:/Users/DuyThanh/mingw64/bin/../lib/gcc/x86_64-w64-mingw32/13.2.0/../../../../x86_64-w64-mingw32/lib/../lib/libkernel32.a(libkernel32s00440.o)
                              C:\Users\DuyThanh\AppData\Local\Temp\ccsXH6CC.o (FreeLibrary)
C:/Users/DuyThanh/mingw64/bin/../lib/gcc/x86_64-w64-mingw32/13.2.0/../../../../x86_64-w64-mingw32/lib/../lib/libkernel32.a(libkernel32s00436.o)
                              C:\Users\DuyThanh\AppData\Local\Temp\ccsXH6CC.o (FormatMessageW)
C:/Users/DuyThanh/mingw64/bin/../lib/gcc/x86_64-w64-mingw32/13.2.0/../../../../x86_64-w64-mingw32/lib/../lib/libkernel32.a(libkernel32s00435.o)
                              C:\Users\DuyThanh\AppData\Local\Temp\ccsXH6CC.o (FormatMessageA)
C:/Users/DuyThanh/mingw64/bin/../lib/gcc/x86_64-w64-mingw32/13.2.0/../../../../x86_64-w64-mingw32/lib/../lib/libkernel32.a(libkernel32s00431.o)
                              C:\Users\DuyThanh\AppData\Local\Temp\ccsXH6CC.o (FlushViewOfFile)
C:/Users/DuyThanh/mingw64/bin/../lib/gcc/x86_64-w64-mingw32/13.2.0/../../../../x86_64-w64-mingw32/lib/../lib/libkernel32.a(libkernel32s00428.o)
                              C:\Users\DuyThanh\AppData\Local\Temp\ccsXH6CC.o (FlushFileBuffers)
C:/Users/DuyThanh/mingw64/bin/../lib/gcc/x86_64-w64-mingw32/13.2.0/../../../../x86_64-w64-mingw32/lib/../lib/libkernel32.a(libkernel32s00397.o)
                              C:\Users\DuyThanh\AppData\Local\Temp\cclGozRv.o (__imp_FindFirstFileW)
C:/Users/DuyThanh/mingw64/bin/../lib/gcc/x86_64-w64-mingw32/13.2.0/../../../../x86_64-w64-mingw32/lib/../lib/libkernel32.a(libkernel32s00386.o)
                              C:\Users\DuyThanh\AppData\Local\Temp\cclGozRv.o (__imp_FindClose)
C:/Users/DuyThanh/mingw64/bin/../lib/gcc/x86_64-w64-mingw32/13.2.0/../../../../x86_64-w64-mingw32/lib/../lib/libkernel32.a(libkernel32s00316.o)
                              C:\Users\DuyThanh\AppData\Local\Temp\ccsXH6CC.o (__imp_EnterCriticalSection)
C:/Users/DuyThanh/mingw64/bin/../lib/gcc/x86_64-w64-mingw32/13.2.0/../../../../x86_64-w64-mingw32/lib/../lib/libkernel32.a(libkernel32s00285.o)
                              C:\Users\DuyThanh\AppData\Local\Temp\ccsXH6CC.o (DeleteFileW)
C:/Users/DuyThanh/mingw64/bin/../lib/gcc/x86_64-w64-mingw32/13.2.0/../../../../x86_64-w64-mingw32/lib/../lib/libkernel32.a(libkernel32s00282.o)
                              C:\Users\DuyThanh\AppData\Local\Temp\ccsXH6CC.o (DeleteFileA)
C:/Users/DuyThanh/mingw64/bin/../lib/gcc/x86_64-w64-mingw32/13.2.0/../../../../x86_64-w64-mingw32/lib/../lib/libkernel32.a(libkernel32s00280.o)
                              C:\Users\DuyThanh\AppData\Local\Temp\ccsXH6CC.o (__imp_DeleteCriticalSection)
C:/Users/DuyThanh/mingw64/bin/../lib/gcc/x86_64-w64-mingw32/13.2.0/../../../../x86_64-w64-mingw32/lib/../lib/libkernel32.a(libkernel32s00270.o)
                              C:\Users\DuyThanh\AppData\Local\Temp\cclGozRv.o (__imp_DebugBreak)
C:/Users/DuyThanh/mingw64/bin/../lib/gcc/x86_64-w64-mingw32/13.2.0/../../../../x86_64-w64-mingw32/lib/../lib/libkernel32.a(libkernel32s00226.o)
                              C:\Users\DuyThanh\AppData\Local\Temp\ccsXH6CC.o (CreateMutexW)
C:/Users/DuyThanh/mingw64/bin/../lib/gcc/x86_64-w64-mingw32/13.2.0/../../../../x86_64-w64-mingw32/lib/../lib/libkernel32.a(libkernel32s00211.o)
                              C:\Users\DuyThanh\AppData\Local\Temp\ccsXH6CC.o (CreateFileW)
C:/Users/DuyThanh/mingw64/bin/../lib/gcc/x86_64-w64-mingw32/13.2.0/../../../../x86_64-w64-mingw32/lib/../lib/libkernel32.a(libkernel32s00208.o)
                              C:\Users\DuyThanh\AppData\Local\Temp\ccsXH6CC.o (CreateFileMappingW)
C:/Users/DuyThanh/mingw64/bin/../lib/gcc/x86_64-w64-mingw32/13.2.0/../../../../x86_64-w64-mingw32/lib/../lib/libkernel32.a(libkernel32s00203.o)
                              C:\Users\DuyThanh\AppData\Local\Temp\ccsXH6CC.o (CreateFileA)
C:/Users/DuyThanh/mingw64/bin/../lib/gcc/x86_64-w64-mingw32/13.2.0/../../../../x86_64-w64-mingw32/lib/../lib/libkernel32.a(libkernel32s00140.o)
                              C:\Users\DuyThanh\AppData\Local\Temp\ccsXH6CC.o (CloseHandle)
C:/Users/DuyThanh/mingw64/bin/../lib/gcc/x86_64-w64-mingw32/13.2.0/../../../../x86_64-w64-mingw32/lib/../lib/libkernel32.a(libkernel32s00035.o)
                              C:\Users\DuyThanh\AppData\Local\Temp\ccsXH6CC.o (AreFileApisANSI)
C:/Users/DuyThanh/mingw64/bin/../lib/gcc/x86_64-w64-mingw32/13.2.0/../../../../x86_64-w64-mingw32/lib/../lib/libkernel32.a(libkernel32h.o)
                              C:/Users/DuyThanh/mingw64/bin/../lib/gcc/x86_64-w64-mingw32/13.2.0/../../../../x86_64-w64-mingw32/lib/../lib/libkernel32.a(libkernel32s01563.o) (_head_lib64_libkernel32_a)
C:/Users/DuyThanh/mingw64/bin/../lib/gcc/x86_64-w64-mingw32/13.2.0/../../../../x86_64-w64-mingw32/lib/../lib/libkernel32.a(libkernel32t.o)
                              C:/Users/DuyThanh/mingw64/bin/../lib/gcc/x86_64-w64-mingw32/13.2.0/../../../../x86_64-w64-mingw32/lib/../lib/libkernel32.a(libkernel32h.o) (__lib64_libkernel32_a_iname)

Discarded input sections

 .rdata$.refptr.__image_base__
                0x0000000000000000       0x10 C:/Users/DuyThanh/mingw64/bin/../lib/gcc/x86_64-w64-mingw32/13.2.0/../../../../x86_64-w64-mingw32/lib/../lib/libmingw32.a(lib64_libmingw32_a-pesect.o)
 .rdata$.refptr.__tens_D2A
                0x0000000000000000       0x10 C:/Users/DuyThanh/mingw64/bin/../lib/gcc/x86_64-w64-mingw32/13.2.0/../../../../x86_64-w64-mingw32/lib/../lib/libmingwex.a(lib64_libmingwex_a-gdtoa.o)
 .rdata$.refptr.__hexdig_D2A
                0x0000000000000000       0x10 C:/Users/DuyThanh/mingw64/bin/../lib/gcc/x86_64-w64-mingw32/13.2.0/../../../../x86_64-w64-mingw32/lib/../lib/libmingwex.a(lib64_libmingwex_a-hexnan.o)

Memory Configuration

Name             Origin             Length             Attributes
*default*        0x0000000000000000 0xffffffffffffffff

Linker script and memory map

                0x0000000337440000                __image_base__ = 0x337440000
                0x0000000000000000                __dll__ = 0x0
                0x0000000337440000                __ImageBase = 0x337440000
                0x0000000000001000                __section_alignment__ = 0x1000
                0x0000000000000200                __file_alignment__ = 0x200
                0x0000000000000004                __major_os_version__ = 0x4
                0x0000000000000000                __minor_os_version__ = 0x0
                0x0000000000000000                __major_image_version__ = 0x0
                0x0000000000000000                __minor_image_version__ = 0x0
                0x0000000000000005                __major_subsystem_version__ = 0x5
                0x0000000000000002                __minor_subsystem_version__ = 0x2
                0x0000000000000003                __subsystem__ = 0x3
                0x0000000000200000                __size_of_stack_reserve__ = 0x200000
                0x0000000000001000                __size_of_stack_commit__ = 0x1000
                0x0000000000100000                __size_of_heap_reserve__ = 0x100000
                0x0000000000001000                __size_of_heap_commit__ = 0x1000
                0x0000000000000000                __loader_flags__ = 0x0
                0x0000000000000160                __dll_characteristics__ = 0x160
LOAD C:/Users/DuyThanh/mingw64/bin/../lib/gcc/x86_64-w64-mingw32/13.2.0/../../../../x86_64-w64-mingw32/lib/../lib/dllcrt2.o
LOAD C:/Users/DuyThanh/mingw64/bin/../lib/gcc/x86_64-w64-mingw32/13.2.0/crtbegin.o
LOAD C:\Users\DuyThanh\AppData\Local\Temp\ccRJjOEn.o
LOAD C:\Users\DuyThanh\AppData\Local\Temp\cclGozRv.o
LOAD C:\Users\DuyThanh\AppData\Local\Temp\ccsXH6CC.o
LOAD C:/Users/DuyThanh/mingw64/bin/../lib/gcc/x86_64-w64-mingw32/13.2.0/../../../../x86_64-w64-mingw32/lib/../lib/libmingw32.a
LOAD C:/Users/DuyThanh/mingw64/bin/../lib/gcc/x86_64-w64-mingw32/13.2.0/../../../../x86_64-w64-mingw32/lib/../lib/libgcc_s.a
LOAD C:/Users/DuyThanh/mingw64/bin/../lib/gcc/x86_64-w64-mingw32/13.2.0/libgcc.a
LOAD C:/Users/DuyThanh/mingw64/bin/../lib/gcc/x86_64-w64-mingw32/13.2.0/../../../../x86_64-w64-mingw32/lib/../lib/libmoldname.a
LOAD C:/Users/DuyThanh/mingw64/bin/../lib/gcc/x86_64-w64-mingw32/13.2.0/../../../../x86_64-w64-mingw32/lib/../lib/libmingwex.a
LOAD C:/Users/DuyThanh/mingw64/bin/../lib/gcc/x86_64-w64-mingw32/13.2.0/../../../../x86_64-w64-mingw32/lib/../lib/libmsvcrt.a
LOAD C:/Users/DuyThanh/mingw64/bin/../lib/gcc/x86_64-w64-mingw32/13.2.0/../../../../x86_64-w64-mingw32/lib/../lib/libkernel32.a
LOAD C:/Users/DuyThanh/mingw64/bin/../lib/gcc/x86_64-w64-mingw32/13.2.0/../../../../x86_64-w64-mingw32/lib/../lib/libpthread.dll.a
LOAD C:/Users/DuyThanh/mingw64/bin/../lib/gcc/x86_64-w64-mingw32/13.2.0/../../../../x86_64-w64-mingw32/lib/../lib/libadvapi32.a
LOAD C:/Users/DuyThanh/mingw64/bin/../lib/gcc/x86_64-w64-mingw32/13.2.0/../../../../x86_64-w64-mingw32/lib/../lib/libshell32.a
LOAD C:/Users/DuyThanh/mingw64/bin/../lib/gcc/x86_64-w64-mingw32/13.2.0/../../../../x86_64-w64-mingw32/lib/../lib/libuser32.a
LOAD C:/Users/DuyThanh/mingw64/bin/../lib/gcc/x86_64-w64-mingw32/13.2.0/../../../../x86_64-w64-mingw32/lib/../lib/libkernel32.a
LOAD C:/Users/DuyThanh/mingw64/bin/../lib/gcc/x86_64-w64-mingw32/13.2.0/../../../../x86_64-w64-mingw32/lib/../lib/libiconv.a
LOAD C:/Users/DuyThanh/mingw64/bin/../lib/gcc/x86_64-w64-mingw32/13.2.0/../../../../x86_64-w64-mingw32/lib/../lib/libmingw32.a
LOAD C:/Users/DuyThanh/mingw64/bin/../lib/gcc/x86_64-w64-mingw32/13.2.0/../../../../x86_64-w64-mingw32/lib/../lib/libgcc_s.a
LOAD C:/Users/DuyThanh/mingw64/bin/../lib/gcc/x86_64-w64-mingw32/13.2.0/libgcc.a
LOAD C:/Users/DuyThanh/mingw64/bin/../lib/gcc/x86_64-w64-mingw32/13.2.0/../../../../x86_64-w64-mingw32/lib/../lib/libmoldname.a
LOAD C:/Users/DuyThanh/mingw64/bin/../lib/gcc/x86_64-w64-mingw32/13.2.0/../../../../x86_64-w64-mingw32/lib/../lib/libmingwex.a
LOAD C:/Users/DuyThanh/mingw64/bin/../lib/gcc/x86_64-w64-mingw32/13.2.0/../../../../x86_64-w64-mingw32/lib/../lib/libmsvcrt.a
LOAD C:/Users/DuyThanh/mingw64/bin/../lib/gcc/x86_64-w64-mingw32/13.2.0/../../../../x86_64-w64-mingw32/lib/../lib/libkernel32.a
LOAD C:/Users/DuyThanh/mingw64/bin/../lib/gcc/x86_64-w64-mingw32/13.2.0/crtend.o
                0x00000000000004a8                . = SIZEOF_HEADERS
                0x0000000000001000                . = ALIGN (__section_alignment__)

.text           0x0000000337441000    0xc5200
 *(SORT_NONE(.init))
 *(.text)
 .text          0x0000000337441000      0x350 C:/Users/DuyThanh/mingw64/bin/../lib/gcc/x86_64-w64-mingw32/13.2.0/../../../../x86_64-w64-mingw32/lib/../lib/dllcrt2.o
                0x0000000337441010                _CRT_INIT
                0x0000000337441320                DllMainCRTStartup
                0x0000000337441340                atexit
 .text          0x0000000337441350       0x20 C:/Users/DuyThanh/mingw64/bin/../lib/gcc/x86_64-w64-mingw32/13.2.0/crtbegin.o
                0x0000000337441350                __gcc_register_frame
                0x0000000337441360                __gcc_deregister_frame
 .text          0x0000000337441370      0x530 C:\Users\DuyThanh\AppData\Local\Temp\ccRJjOEn.o
                0x00000003374413b2                init
                0x00000003374413ed                close
                0x0000000337441420                SQL_OpenDB
                0x0000000337441472                SQL_CloseDB
                0x00000003374414a7                SQL_Exec
                0x0000000337441538                callback
                0x0000000337441545                Add
                0x0000000337441549                b64_encoded_size
                0x0000000337441593                b64_encode
                0x00000003374416a5                b64_decoded_size
                0x0000000337441701                b64_generate_decode_table
                0x000000033744170d                b64_isvalidchar
                0x000000033744174a                b64_decode
 .text          0x00000003374418a0    0x20a40 C:\Users\DuyThanh\AppData\Local\Temp\cclGozRv.o
                0x000000033744669b                dummyCompare
                0x00000003374466ba                dummyUDF
                0x00000003374466d9                dummyUDFvalue
                0x0000000337448884                useDummyCS
                0x0000000337453cfe                sqlite3MemTraceActivate
                0x0000000337453d4a                sqlite3MemTraceDeactivate
                0x0000000337453da1                sqlite3PcacheTraceActivate
                0x0000000337453ded                sqlite3PcacheTraceDeactivate
                0x0000000337453e44                sqlite3_shathree_init
                0x0000000337453f67                sqlite3_uint_init
                0x0000000337453f94                sqlite3_decimal_init
                0x0000000337454092                sqlite3_base64_init
                0x00000003374540da                sqlite3_base85_init
                0x0000000337454122                sqlite3_ieee_init
                0x0000000337454186                sqlite3_series_init
                0x00000003374541dc                sqlite3_regexp_init
                0x000000033745426d                sqlite3_fileio_init
                0x000000033745436f                sqlite3CompletionVtabInit
                0x0000000337454391                sqlite3_completion_init
                0x000000033745439f                sqlite3_appendvfs_init
                0x00000003374543f5                registerUDFs
                0x0000000337454664                sqlite3_expert_config
                0x00000003374546b8                sqlite3_expert_sql
                0x000000033745486a                sqlite3_expert_analyze
                0x0000000337455778                sqlite3_expert_count
                0x000000033745578c                sqlite3_expert_report
                0x0000000337455811                sqlite3_expert_destroy
                0x00000003374558aa                sqlite3_expert_new
                0x00000003374572f0                deduceDatabaseType
                0x0000000337457fb5                close_db
                0x000000033745812d                shellDeleteFile
                0x0000000337460a64                shellReset
                0x0000000337460aaf                main
 .text          0x00000003374622e0    0x95c90 C:\Users\DuyThanh\AppData\Local\Temp\ccsXH6CC.o
                0x0000000337462522                sqlite3_mutex_free
                0x0000000337462537                sqlite3_mutex_enter
                0x000000033746254c                sqlite3_mutex_try
                0x0000000337462565                sqlite3_mutex_leave
                0x0000000337462595                sqlite3_release_memory
                0x000000033746261a                sqlite3_msize
                0x0000000337462676                sqlite3_str_errcode
                0x0000000337462687                sqlite3_str_length
                0x0000000337462695                sqlite3_str_value
                0x00000003374629d7                sqlite3_stricmp
                0x00000003374629fb                sqlite3_strnicmp
                0x0000000337464c3f                sqlite3_database_file_object
                0x0000000337465237                sqlite3_enable_shared_cache
                0x0000000337465b6b                sqlite3_backup_remaining
                0x0000000337465b6f                sqlite3_backup_pagecount
                0x000000033746630b                sqlite3_expired
                0x00000003374663a2                sqlite3_value_double
                0x00000003374663b0                sqlite3_value_int
                0x00000003374663be                sqlite3_value_int64
                0x00000003374663cc                sqlite3_value_subtype
                0x00000003374663dc                sqlite3_value_type
                0x00000003374663ef                sqlite3_value_encoding
                0x00000003374663f4                sqlite3_value_nochange
                0x0000000337466405                sqlite3_value_frombind
                0x0000000337466411                sqlite3_result_subtype
                0x000000033746641e                sqlite3_user_data
                0x0000000337466427                sqlite3_context_db_handle
                0x0000000337466491                sqlite3_get_auxdata
                0x00000003374664cb                sqlite3_aggregate_count
                0x00000003374664d3                sqlite3_column_count
                0x00000003374664e7                sqlite3_data_count
                0x000000033746650c                sqlite3_bind_parameter_count
                0x000000033746651b                sqlite3_bind_parameter_name
                0x000000033746653a                sqlite3_db_handle
                0x0000000337466548                sqlite3_stmt_readonly
                0x0000000337466560                sqlite3_stmt_isexplain
                0x0000000337466578                sqlite3_stmt_busy
                0x0000000337466590                sqlite3_next_stmt
                0x00000003374665c7                sqlite3_sql
                0x0000000337466673                sqlite3_blob_bytes
                0x0000000337467c3c                sqlite3_set_authorizer
                0x0000000337468df5                sqlite3_cancel_auto_extension
                0x00000003374699b9                sqlite3_vtab_on_conflict
                0x000000033746a253                sqlite3_vtab_in
                0x000000033746a297                sqlite3_vtab_distinct
                0x000000033746a74f                sqlite3_keyword_name
                0x000000033746a78e                sqlite3_keyword_count
                0x000000033746b069                sqlite3_complete
                0x000000033746b44e                sqlite3_libversion
                0x000000033746b456                sqlite3_libversion_number
                0x000000033746b45c                sqlite3_threadsafe
                0x000000033746b4be                sqlite3_db_mutex
                0x000000033746b50f                sqlite3_last_insert_rowid
                0x000000033746b514                sqlite3_set_last_insert_rowid
                0x000000033746b53e                sqlite3_changes64
                0x000000033746b543                sqlite3_total_changes64
                0x000000033746b59d                sqlite3_txn_state
                0x000000033746b753                sqlite3_busy_handler
                0x000000033746b7a4                sqlite3_progress_handler
                0x000000033746b7fe                sqlite3_busy_timeout
                0x000000033746b840                sqlite3_trace
                0x000000033746b890                sqlite3_trace_v2
                0x000000033746b8eb                sqlite3_profile
                0x000000033746b944                sqlite3_commit_hook
                0x000000033746b988                sqlite3_update_hook
                0x000000033746b9cc                sqlite3_rollback_hook
                0x000000033746ba10                sqlite3_autovacuum_pages
                0x000000033746ba6e                sqlite3_wal_hook
                0x000000033746bab2                sqlite3_wal_autocheckpoint
                0x000000033746bae5                sqlite3_system_errno
                0x000000033746baf3                sqlite3_errstr
                0x000000033746bb01                sqlite3_limit
                0x000000033746bb4d                sqlite3_collation_needed
                0x000000033746bb95                sqlite3_collation_needed16
                0x000000033746bbdd                sqlite3_get_autocommit
                0x000000033746bbe2                sqlite3_thread_cleanup
                0x000000033746bbe3                sqlite3_extended_result_codes
                0x000000033746bc37                sqlite3_filename_database
                0x000000033746bc88                sqlite3_db_name
                0x000000033746bcac                sqlite3_db_filename
                0x000000033746bcd0                sqlite3_db_readonly
                0x000000033746bcf5                sqlite3_compileoption_get
                0x000000033746c747                sqlite3_sourceid
                0x000000033746c793                sqlite3_interrupt
                0x000000033746dedb                sqlite3_value_pointer
                0x000000033746dfe9                sqlite3_get_clientdata
                0x000000033746e314                sqlite3_uri_parameter
                0x000000033746e393                sqlite3_uri_boolean
                0x000000033746e3c0                sqlite3_uri_key
                0x000000033746e432                sqlite3_filename_journal
                0x000000033746e48c                sqlite3_filename_wal
                0x000000033746f117                sqlite3_is_interrupted
                0x000000033746f23b                sqlite3_uri_int64
                0x000000033746f98a                sqlite3_strglob
                0x000000033746fc36                sqlite3_strlike
                0x0000000337470251                sqlite3_total_changes
                0x0000000337470258                sqlite3_changes
                0x000000033747025c                sqlite3_keyword_check
                0x000000033747046b                sqlite3_bind_parameter_index
                0x00000003374704a9                sqlite3_vtab_nochange
                0x00000003374707e2                sqlite3_value_numeric_type
                0x000000033747094a                sqlite3_db_release_memory
                0x0000000337471798                sqlite3_free
                0x0000000337471890                sqlite3_str_reset
                0x00000003374721c1                sqlite3_column_double
                0x00000003374721f8                sqlite3_column_int
                0x0000000337472222                sqlite3_column_int64
                0x000000033747224d                sqlite3_column_value
                0x0000000337472283                sqlite3_column_type
                0x00000003374722ac                sqlite3_result_double
                0x000000033747232b                sqlite3_result_int
                0x00000003374723af                sqlite3_result_int64
                0x0000000337472412                sqlite3_result_null
                0x00000003374726e6                sqlite3_clear_bindings
                0x0000000337472874                sqlite3_transfer_bindings
                0x000000033747291e                sqlite3_result_pointer
                0x0000000337472996                sqlite3_value_free
                0x0000000337473a46                sqlite3_free_table
                0x0000000337473b49                sqlite3_free_filename
                0x0000000337474749                sqlite3_file_control
                0x0000000337474ed4                sqlite3_db_config
                0x00000003374764e2                sqlite3_stmt_status
                0x0000000337476685                sqlite3_db_status
                0x0000000337477c88                sqlite3_str_finish
                0x00000003374780e9                sqlite3_set_auxdata
                0x0000000337479637                sqlite3_value_bytes
                0x000000033747964a                sqlite3_column_bytes
                0x0000000337479673                sqlite3_value_bytes16
                0x0000000337479686                sqlite3_column_bytes16
                0x0000000337479797                sqlite3_value_text
                0x00000003374797d7                sqlite3_str_vappendf
                0x000000033747b624                sqlite3_str_appendf
                0x000000033747e56d                sqlite3_str_appendchar
                0x000000033747e604                sqlite3_str_append
                0x000000033747e63d                sqlite3_str_appendall
                0x000000033747ea10                sqlite3_aggregate_context
                0x000000033747f7bb                sqlite3_result_error
                0x000000033747fc1b                sqlite3_result_error16
                0x000000033747fc46                sqlite3_result_error_toobig
                0x000000033747fc7c                sqlite3_result_zeroblob64
                0x000000033747fcb1                sqlite3_result_zeroblob
                0x000000033748296e                sqlite3_result_error_nomem
                0x0000000337489862                sqlite3_vsnprintf
                0x00000003374898bb                sqlite3_log
                0x00000003374899a2                sqlite3_status64
                0x0000000337489a31                sqlite3_status
                0x0000000337489a77                sqlite3_memory_used
                0x0000000337489a9f                sqlite3_memory_highwater
                0x0000000337489ac4                sqlite3_vtab_config
                0x000000033748a00a                sqlite3_create_collation_v2
                0x000000033748a073                sqlite3_create_collation
                0x000000033748c24d                sqlite3_error_offset
                0x000000033748c29d                sqlite3_errcode
                0x000000033748c2dd                sqlite3_extended_errcode
                0x000000033748c465                sqlite3_bind_double
                0x000000033748c4d9                sqlite3_bind_int64
                0x000000033748c52b                sqlite3_bind_int
                0x000000033748c53c                sqlite3_bind_null
                0x000000033748c56a                sqlite3_bind_pointer
                0x000000033748c5e0                sqlite3_bind_zeroblob
                0x000000033748c631                sqlite3_bind_zeroblob64
                0x000000033748c736                sqlite3_snprintf
                0x000000033748e4b9                sqlite3_value_blob
                0x000000033748e5a9                sqlite3_column_blob
                0x000000033748e6ab                sqlite3_column_text
                0x000000033748e7ab                sqlite3_errmsg
                0x000000033748ec5f                sqlite3_value_text16
                0x000000033748ec72                sqlite3_column_text16
                0x000000033748edc7                sqlite3_column_name
                0x000000033748ede1                sqlite3_column_name16
                0x000000033748edfb                sqlite3_column_decltype
                0x000000033748ee15                sqlite3_column_decltype16
                0x000000033748ee2f                sqlite3_errmsg16
                0x000000033748eec5                sqlite3_value_text16be
                0x000000033748eed8                sqlite3_value_text16le
                0x00000003374911c5                sqlite3_vtab_collation
                0x000000033749319c                sqlite3_result_value
                0x00000003374934b5                sqlite3_result_blob
                0x0000000337493580                sqlite3_result_text
                0x0000000337493b12                sqlite3_result_text16
                0x0000000337493b30                sqlite3_result_text16be
                0x0000000337493b4e                sqlite3_result_text16le
                0x0000000337493b6c                sqlite3_result_error_code
                0x0000000337493fc9                sqlite3_result_blob64
                0x000000033749400d                sqlite3_result_text64
                0x000000033749440a                sqlite3_bind_blob
                0x000000033749442d                sqlite3_bind_blob64
                0x000000033749444d                sqlite3_bind_text
                0x0000000337494470                sqlite3_bind_text64
                0x00000003374944af                sqlite3_bind_text16
                0x00000003374944d6                sqlite3_bind_value
                0x000000033749460f                sqlite3_create_function16
                0x00000003374946d3                sqlite3_create_collation16
                0x0000000337494d2b                sqlite3_vtab_rhs_value
                0x000000033749945d                sqlite3_expanded_sql
                0x000000033749ad9d                sqlite3_create_module
                0x000000033749adfb                sqlite3_create_module_v2
                0x000000033749ae13                sqlite3_drop_modules
                0x000000033749b016                sqlite3_create_function
                0x000000033749b073                sqlite3_create_function_v2
                0x000000033749b0d4                sqlite3_create_window_function
                0x000000033749ccb7                sqlite3_compileoption_used
                0x000000033749cdcf                sqlite3_memory_alarm
                0x000000033749cdd5                sqlite3_win32_write_debug
                0x000000033749ce3b                sqlite3_win32_sleep
                0x000000033749d8d7                sqlite3_win32_is_nt
                0x000000033749d8dd                sqlite3_os_end
                0x000000033749d8ee                sqlite3_enable_load_extension
                0x000000033749d935                sqlite3_config
                0x000000033749df3c                sqlite3_initialize
                0x000000033749e3a3                sqlite3_vfs_find
                0x000000033749e40d                sqlite3_sleep
                0x000000033749e45b                sqlite3_vfs_register
                0x000000033749e4d5                sqlite3_os_init
                0x000000033749e55a                sqlite3_vfs_unregister
                0x000000033749e5a0                sqlite3_mutex_alloc
                0x000000033749e81d                sqlite3_soft_heap_limit64
                0x000000033749e8b4                sqlite3_soft_heap_limit
                0x000000033749e8d0                sqlite3_hard_heap_limit64
                0x000000033749e938                sqlite3_malloc
                0x000000033749ebe2                sqlite3_value_dup
                0x000000033749f051                sqlite3_malloc64
                0x000000033749f077                sqlite3_str_new
                0x00000003374a05fc                sqlite3_set_clientdata
                0x00000003374a071f                sqlite3_create_filename
                0x00000003374a082a                sqlite3_realloc
                0x00000003374a085c                sqlite3_realloc64
                0x00000003374a2a7d                sqlite3_vmprintf
                0x00000003374a2af8                sqlite3_mprintf
                0x00000003374a5302                sqlite3_load_extension
                0x00000003374a89af                sqlite3_overload_function
                0x00000003374a8dec                sqlite3_randomness
                0x00000003374b4a7f                sqlite3_vtab_in_first
                0x00000003374b4a93                sqlite3_vtab_in_next
                0x00000003374b502e                sqlite3_db_cacheflush
                0x00000003374b5791                sqlite3_backup_step
                0x00000003374b7b36                sqlite3_backup_init
                0x00000003374b9392                sqlite3_backup_finish
                0x00000003374b95fd                sqlite3_close
                0x00000003374b9610                sqlite3_close_v2
                0x00000003374ba74a                sqlite3_finalize
                0x00000003374ba836                sqlite3_blob_close
                0x00000003374ba87f                sqlite3_reset
                0x00000003374baa36                sqlite3_blob_read
                0x00000003374baa50                sqlite3_blob_write
                0x00000003374d83aa                sqlite3_step
                0x00000003374d8f56                sqlite3_exec
                0x00000003374ea0f0                sqlite3_stmt_explain
                0x00000003374ea1fb                sqlite3_prepare
                0x00000003374ee205                sqlite3_prepare_v2
                0x00000003374ee3cc                sqlite3_prepare_v3
                0x00000003374ee585                sqlite3_prepare16
                0x00000003374ee5a8                sqlite3_prepare16_v2
                0x00000003374ee5cb                sqlite3_prepare16_v3
                0x00000003374f3156                sqlite3_declare_vtab
                0x00000003374f4eb7                sqlite3_table_column_metadata
                0x00000003374f549c                sqlite3_wal_checkpoint_v2
                0x00000003374f559c                sqlite3_wal_checkpoint
                0x00000003374f55f3                sqlite3_get_table
                0x00000003374f57c2                sqlite3_serialize
                0x00000003374f59ee                sqlite3_deserialize
                0x00000003374f64d4                sqlite3_blob_open
                0x00000003374f6a9a                sqlite3_blob_reopen
                0x00000003374f6be2                sqlite3_test_control
                0x00000003374f7314                sqlite3_win32_utf8_to_unicode
                0x00000003374f733a                sqlite3_win32_unicode_to_utf8
                0x00000003374f7360                sqlite3_win32_mbcs_to_utf8
                0x00000003374f73b3                sqlite3_win32_mbcs_to_utf8_v2
                0x00000003374f7402                sqlite3_win32_utf8_to_mbcs
                0x00000003374f7457                sqlite3_win32_utf8_to_mbcs_v2
                0x00000003374f74a6                sqlite3_win32_set_directory8
                0x00000003374f7546                sqlite3_win32_set_directory16
                0x00000003374f7597                sqlite3_win32_set_directory
                0x00000003374f75a5                sqlite3_auto_extension
                0x00000003374f7651                sqlite3_reset_auto_extension
                0x00000003374f76a5                sqlite3_shutdown
                0x00000003374f779b                sqlite3_complete16
                0x00000003374f7e76                sqlite3_open
                0x00000003374f7e90                sqlite3_open_v2
                0x00000003374f7e9e                sqlite3_open16
                0x00000003374f7f64                sqlite3_global_recover
 .text          0x00000003374f7f70       0xd0 C:/Users/DuyThanh/mingw64/bin/../lib/gcc/x86_64-w64-mingw32/13.2.0/../../../../x86_64-w64-mingw32/lib/../lib/libmingw32.a(lib64_libmingw32_a-gccmain.o)
                0x00000003374f7f70                __do_global_dtors
                0x00000003374f7fb0                __do_global_ctors
                0x00000003374f8020                __main
 .text          0x00000003374f8040        0x0 C:/Users/DuyThanh/mingw64/bin/../lib/gcc/x86_64-w64-mingw32/13.2.0/../../../../x86_64-w64-mingw32/lib/../lib/libmingw32.a(lib64_libmingw32_a-natstart.o)
 .text          0x00000003374f8040       0xd0 C:/Users/DuyThanh/mingw64/bin/../lib/gcc/x86_64-w64-mingw32/13.2.0/../../../../x86_64-w64-mingw32/lib/../lib/libmingw32.a(lib64_libmingw32_a-tlssup.o)
                0x00000003374f8070                __dyn_tls_init
                0x00000003374f8100                __tlregdtor
 .text          0x00000003374f8110        0x0 C:/Users/DuyThanh/mingw64/bin/../lib/gcc/x86_64-w64-mingw32/13.2.0/../../../../x86_64-w64-mingw32/lib/../lib/libmingw32.a(lib64_libmingw32_a-cinitexe.o)
 .text          0x00000003374f8110        0x0 C:/Users/DuyThanh/mingw64/bin/../lib/gcc/x86_64-w64-mingw32/13.2.0/../../../../x86_64-w64-mingw32/lib/../lib/libmingw32.a(lib64_libmingw32_a-mingw_helpers.o)
 .text          0x00000003374f8110      0x540 C:/Users/DuyThanh/mingw64/bin/../lib/gcc/x86_64-w64-mingw32/13.2.0/../../../../x86_64-w64-mingw32/lib/../lib/libmingw32.a(lib64_libmingw32_a-pseudo-reloc.o)
                0x00000003374f82f0                _pei386_runtime_relocator
 .text          0x00000003374f8650      0x270 C:/Users/DuyThanh/mingw64/bin/../lib/gcc/x86_64-w64-mingw32/13.2.0/../../../../x86_64-w64-mingw32/lib/../lib/libmingw32.a(lib64_libmingw32_a-tlsthrd.o)
                0x00000003374f86c0                ___w64_mingwthr_add_key_dtor
                0x00000003374f8730                ___w64_mingwthr_remove_key_dtor
                0x00000003374f87c0                __mingw_TLScallback
 .text          0x00000003374f88c0        0x0 C:/Users/DuyThanh/mingw64/bin/../lib/gcc/x86_64-w64-mingw32/13.2.0/../../../../x86_64-w64-mingw32/lib/../lib/libmingw32.a(lib64_libmingw32_a-tlsmcrt.o)
 .text          0x00000003374f88c0       0x20 C:/Users/DuyThanh/mingw64/bin/../lib/gcc/x86_64-w64-mingw32/13.2.0/../../../../x86_64-w64-mingw32/lib/../lib/libmingw32.a(lib64_libmingw32_a-exit_wrappers.o)
                0x00000003374f88c0                exit
                0x00000003374f88d0                _exit
 .text          0x00000003374f88e0        0x0 C:/Users/DuyThanh/mingw64/bin/../lib/gcc/x86_64-w64-mingw32/13.2.0/../../../../x86_64-w64-mingw32/lib/../lib/libmingw32.a(lib64_libmingw32_a-pseudo-reloc-list.o)
 .text          0x00000003374f88e0      0x400 C:/Users/DuyThanh/mingw64/bin/../lib/gcc/x86_64-w64-mingw32/13.2.0/../../../../x86_64-w64-mingw32/lib/../lib/libmingw32.a(lib64_libmingw32_a-pesect.o)
                0x00000003374f88e0                _ValidateImageBase
                0x00000003374f8910                _FindPESection
                0x00000003374f8960                _FindPESectionByName
                0x00000003374f8a00                __mingw_GetSectionForAddress
                0x00000003374f8a80                __mingw_GetSectionCount
                0x00000003374f8ac0                _FindPESectionExec
                0x00000003374f8b40                _GetPEImageBase
                0x00000003374f8b80                _IsNonwritableInCurrentImage
                0x00000003374f8c10                __mingw_enum_import_library_names
 .text          0x00000003374f8ce0       0x10 C:/Users/DuyThanh/mingw64/bin/../lib/gcc/x86_64-w64-mingw32/13.2.0/../../../../x86_64-w64-mingw32/lib/../lib/libmingw32.a(lib64_libmingw32_a-CRT_fp10.o)
                0x00000003374f8ce0                fpreset
                0x00000003374f8ce0                _fpreset
 .text          0x00000003374f8cf0       0x40 C:/Users/DuyThanh/mingw64/bin/../lib/gcc/x86_64-w64-mingw32/13.2.0/libgcc.a(_chkstk_ms.o)
                0x00000003374f8cf0                ___chkstk_ms
 .text          0x00000003374f8d30        0x0 C:/Users/DuyThanh/mingw64/bin/../lib/gcc/x86_64-w64-mingw32/13.2.0/libgcc.a(_ctors.o)
 .text          0x00000003374f8d30       0x10 C:/Users/DuyThanh/mingw64/bin/../lib/gcc/x86_64-w64-mingw32/13.2.0/../../../../x86_64-w64-mingw32/lib/../lib/libmingwex.a(lib64_libmingwex_a-dllentry.o)
                0x00000003374f8d30                DllEntryPoint
 .text          0x00000003374f8d40       0x10 C:/Users/DuyThanh/mingw64/bin/../lib/gcc/x86_64-w64-mingw32/13.2.0/../../../../x86_64-w64-mingw32/lib/../lib/libmingwex.a(lib64_libmingwex_a-dllmain.o)
                0x00000003374f8d40                DllMain
 .text          0x00000003374f8d50      0x110 C:/Users/DuyThanh/mingw64/bin/../lib/gcc/x86_64-w64-mingw32/13.2.0/../../../../x86_64-w64-mingw32/lib/../lib/libmingwex.a(lib64_libmingwex_a-strtodnrp.o)
                0x00000003374f8d50                __mingw_strtod
                0x00000003374f8d50                __strtod
 .text          0x00000003374f8e60      0x550 C:/Users/DuyThanh/mingw64/bin/../lib/gcc/x86_64-w64-mingw32/13.2.0/../../../../x86_64-w64-mingw32/lib/../lib/libmingwex.a(lib64_libmingwex_a-dirent.o)
                0x00000003374f8e60                opendir
                0x00000003374f8fd0                readdir
                0x00000003374f91b0                closedir
                0x00000003374f9210                rewinddir
                0x00000003374f9270                telldir
                0x00000003374f92b0                seekdir
 .text          0x00000003374f93b0       0x50 C:/Users/DuyThanh/mingw64/bin/../lib/gcc/x86_64-w64-mingw32/13.2.0/../../../../x86_64-w64-mingw32/lib/../lib/libmingwex.a(lib64_libmingwex_a-mingw_vfprintf.o)
                0x00000003374f93b0                __mingw_vfprintf
 .text          0x00000003374f9400     0x3c70 C:/Users/DuyThanh/mingw64/bin/../lib/gcc/x86_64-w64-mingw32/13.2.0/../../../../x86_64-w64-mingw32/lib/../lib/libmingwex.a(lib64_libmingwex_a-mingw_vfscanf.o)
                0x00000003374fcfc0                __mingw_vfscanf
                0x00000003374fd010                __mingw_vsscanf
 .text          0x00000003374fd070     0x2190 C:/Users/DuyThanh/mingw64/bin/../lib/gcc/x86_64-w64-mingw32/13.2.0/../../../../x86_64-w64-mingw32/lib/../lib/libmingwex.a(lib64_libmingwex_a-strtodg.o)
                0x00000003374fd070                __increment_D2A
                0x00000003374fd500                __decrement_D2A
                0x00000003374fd530                __set_ones_D2A
                0x00000003374fd630                __strtodg
 .text          0x00000003374ff200       0xa0 C:/Users/DuyThanh/mingw64/bin/../lib/gcc/x86_64-w64-mingw32/13.2.0/../../../../x86_64-w64-mingw32/lib/../lib/libmingwex.a(lib64_libmingwex_a-strtof.o)
                0x00000003374ff200                __strtof
                0x00000003374ff200                __mingw_strtof
 .text          0x00000003374ff2a0       0xb0 C:/Users/DuyThanh/mingw64/bin/../lib/gcc/x86_64-w64-mingw32/13.2.0/../../../../x86_64-w64-mingw32/lib/../lib/libmingwex.a(lib64_libmingwex_a-strtopx.o)
                0x00000003374ff2a0                __strtold
                0x00000003374ff2a0                __mingw_strtold
                0x00000003374ff2a0                strtold
 .text          0x00000003374ff350      0x180 C:/Users/DuyThanh/mingw64/bin/../lib/gcc/x86_64-w64-mingw32/13.2.0/../../../../x86_64-w64-mingw32/lib/../lib/libmingwex.a(lib64_libmingwex_a-sum.o)
                0x00000003374ff350                __sum_D2A
 .text          0x00000003374ff4d0     0x2600 C:/Users/DuyThanh/mingw64/bin/../lib/gcc/x86_64-w64-mingw32/13.2.0/../../../../x86_64-w64-mingw32/lib/../lib/libmingwex.a(lib64_libmingwex_a-mingw_pformat.o)
                0x0000000337500fe0                __mingw_pformat
 .text          0x0000000337501ad0      0x270 C:/Users/DuyThanh/mingw64/bin/../lib/gcc/x86_64-w64-mingw32/13.2.0/../../../../x86_64-w64-mingw32/lib/../lib/libmingwex.a(lib64_libmingwex_a-dmisc.o)
                0x0000000337501ad0                __rv_alloc_D2A
                0x0000000337501b10                __nrv_alloc_D2A
                0x0000000337501b90                __freedtoa
                0x0000000337501bc0                __quorem_D2A
 .text          0x0000000337501d40     0x1770 C:/Users/DuyThanh/mingw64/bin/../lib/gcc/x86_64-w64-mingw32/13.2.0/../../../../x86_64-w64-mingw32/lib/../lib/libmingwex.a(lib64_libmingwex_a-gdtoa.o)
                0x0000000337501d40                __gdtoa
 .text          0x00000003375034b0      0x8f0 C:/Users/DuyThanh/mingw64/bin/../lib/gcc/x86_64-w64-mingw32/13.2.0/../../../../x86_64-w64-mingw32/lib/../lib/libmingwex.a(lib64_libmingwex_a-gethex.o)
                0x00000003375034b0                __gethex_D2A
 .text          0x0000000337503da0      0x140 C:/Users/DuyThanh/mingw64/bin/../lib/gcc/x86_64-w64-mingw32/13.2.0/../../../../x86_64-w64-mingw32/lib/../lib/libmingwex.a(lib64_libmingwex_a-gmisc.o)
                0x0000000337503da0                __rshift_D2A
                0x0000000337503ea0                __trailz_D2A
 .text          0x0000000337503ee0       0xa0 C:/Users/DuyThanh/mingw64/bin/../lib/gcc/x86_64-w64-mingw32/13.2.0/../../../../x86_64-w64-mingw32/lib/../lib/libmingwex.a(lib64_libmingwex_a-hd_init.o)
                0x0000000337503ee0                __mingw_hexdig_init_D2A
 .text          0x0000000337503f80      0x410 C:/Users/DuyThanh/mingw64/bin/../lib/gcc/x86_64-w64-mingw32/13.2.0/../../../../x86_64-w64-mingw32/lib/../lib/libmingwex.a(lib64_libmingwex_a-hexnan.o)
                0x0000000337503f80                __hexnan_D2A
 .text          0x0000000337504390      0xca0 C:/Users/DuyThanh/mingw64/bin/../lib/gcc/x86_64-w64-mingw32/13.2.0/../../../../x86_64-w64-mingw32/lib/../lib/libmingwex.a(lib64_libmingwex_a-misc.o)
                0x00000003375044c0                __Balloc_D2A
                0x00000003375045c0                __Bfree_D2A
                0x0000000337504630                __multadd_D2A
                0x00000003375046f0                __i2b_D2A
                0x00000003375047b0                __mult_D2A
                0x0000000337504910                __pow5mult_D2A
                0x0000000337504aa0                __lshift_D2A
                0x0000000337504bb0                __cmp_D2A
                0x0000000337504c00                __diff_D2A
                0x0000000337504de0                __b2d_D2A
                0x0000000337504ef0                __d2b_D2A
                0x0000000337505000                __strcp_D2A
 .text          0x0000000337505030      0x2c0 C:/Users/DuyThanh/mingw64/bin/../lib/gcc/x86_64-w64-mingw32/13.2.0/../../../../x86_64-w64-mingw32/lib/../lib/libmingwex.a(lib64_libmingwex_a-smisc.o)
                0x0000000337505030                __s2b_D2A
                0x0000000337505120                __ratio_D2A
                0x00000003375051c0                __match_D2A
                0x0000000337505210                __copybits_D2A
                0x0000000337505280                __any_on_D2A
 .text          0x00000003375052f0       0x30 C:/Users/DuyThanh/mingw64/bin/../lib/gcc/x86_64-w64-mingw32/13.2.0/../../../../x86_64-w64-mingw32/lib/../lib/libmingwex.a(lib64_libmingwex_a-strnlen.o)
                0x00000003375052f0                strnlen
 .text          0x0000000337505320       0x30 C:/Users/DuyThanh/mingw64/bin/../lib/gcc/x86_64-w64-mingw32/13.2.0/../../../../x86_64-w64-mingw32/lib/../lib/libmingwex.a(lib64_libmingwex_a-wcsnlen.o)
                0x0000000337505320                wcsnlen
 .text          0x0000000337505350       0xd0 C:/Users/DuyThanh/mingw64/bin/../lib/gcc/x86_64-w64-mingw32/13.2.0/../../../../x86_64-w64-mingw32/lib/../lib/libmsvcrt.a(lib64_libmsvcrt_extra_a-mingw_lock.o)
                0x0000000337505350                _lock_file
                0x00000003375053c0                _unlock_file
 .text          0x0000000337505420       0x20 C:/Users/DuyThanh/mingw64/bin/../lib/gcc/x86_64-w64-mingw32/13.2.0/../../../../x86_64-w64-mingw32/lib/../lib/libmsvcrt.a(lib64_libmsvcrt_common_a-acrt_iob_func.o)
                0x0000000337505420                __acrt_iob_func
 .text          0x0000000337505440      0x1d0 C:/Users/DuyThanh/mingw64/bin/../lib/gcc/x86_64-w64-mingw32/13.2.0/../../../../x86_64-w64-mingw32/lib/../lib/libmsvcrt.a(lib64_libmsvcrt_common_a-wcrtomb.o)
                0x00000003375054d0                wcrtomb
                0x0000000337505510                wcsrtombs
 .text          0x0000000337505610      0x170 C:/Users/DuyThanh/mingw64/bin/../lib/gcc/x86_64-w64-mingw32/13.2.0/../../../../x86_64-w64-mingw32/lib/../lib/libmsvcrt.a(lib64_libmsvcrt_common_a-onexit_table.o)
                0x0000000337505610                _initialize_onexit_table
                0x0000000337505630                _register_onexit_function
                0x0000000337505710                _execute_onexit_table
 .text          0x0000000337505780      0x340 C:/Users/DuyThanh/mingw64/bin/../lib/gcc/x86_64-w64-mingw32/13.2.0/../../../../x86_64-w64-mingw32/lib/../lib/libmsvcrt.a(lib64_libmsvcrt_common_a-mbrtowc.o)
                0x00000003375058e0                mbrtowc
                0x0000000337505950                mbsrtowcs
                0x0000000337505a60                mbrlen
 .text          0x0000000337505ac0        0x8 C:/Users/DuyThanh/mingw64/bin/../lib/gcc/x86_64-w64-mingw32/13.2.0/../../../../x86_64-w64-mingw32/lib/../lib/libmsvcrt.a(libmsvcrt_defs00063.o)
                0x0000000337505ac0                ___lc_codepage_func
 .text          0x0000000337505ac8        0x8 C:/Users/DuyThanh/mingw64/bin/../lib/gcc/x86_64-w64-mingw32/13.2.0/../../../../x86_64-w64-mingw32/lib/../lib/libmsvcrt.a(libmsvcrt_defs00066.o)
                0x0000000337505ac8                ___mb_cur_max_func
 .text          0x0000000337505ad0        0x8 C:/Users/DuyThanh/mingw64/bin/../lib/gcc/x86_64-w64-mingw32/13.2.0/../../../../x86_64-w64-mingw32/lib/../lib/libmsvcrt.a(libmsvcrt_defs00083.o)
                0x0000000337505ad0                __iob_func
 .text          0x0000000337505ad8        0x8 C:/Users/DuyThanh/mingw64/bin/../lib/gcc/x86_64-w64-mingw32/13.2.0/../../../../x86_64-w64-mingw32/lib/../lib/libmsvcrt.a(libmsvcrt_defs00114.o)
                0x0000000337505ad8                _access
 .text          0x0000000337505ae0        0x8 C:/Users/DuyThanh/mingw64/bin/../lib/gcc/x86_64-w64-mingw32/13.2.0/../../../../x86_64-w64-mingw32/lib/../lib/libmsvcrt.a(libmsvcrt_defs00124.o)
                0x0000000337505ae0                _amsg_exit
 .text          0x0000000337505ae8        0x8 C:/Users/DuyThanh/mingw64/bin/../lib/gcc/x86_64-w64-mingw32/13.2.0/../../../../x86_64-w64-mingw32/lib/../lib/libmsvcrt.a(libmsvcrt_defs00125.o)
                0x0000000337505ae8                _assert
 .text          0x0000000337505af0        0x8 C:/Users/DuyThanh/mingw64/bin/../lib/gcc/x86_64-w64-mingw32/13.2.0/../../../../x86_64-w64-mingw32/lib/../lib/libmsvcrt.a(libmsvcrt_defs00140.o)
                0x0000000337505af0                _beginthreadex
 .text          0x0000000337505af8        0x8 C:/Users/DuyThanh/mingw64/bin/../lib/gcc/x86_64-w64-mingw32/13.2.0/../../../../x86_64-w64-mingw32/lib/../lib/libmsvcrt.a(libmsvcrt_defs00154.o)
                0x0000000337505af8                _chmod
 .text          0x0000000337505b00        0x8 C:/Users/DuyThanh/mingw64/bin/../lib/gcc/x86_64-w64-mingw32/13.2.0/../../../../x86_64-w64-mingw32/lib/../lib/libmsvcrt.a(libmsvcrt_defs00202.o)
                0x0000000337505b00                _endthreadex
 .text          0x0000000337505b08        0x8 C:/Users/DuyThanh/mingw64/bin/../lib/gcc/x86_64-w64-mingw32/13.2.0/../../../../x86_64-w64-mingw32/lib/../lib/libmsvcrt.a(libmsvcrt_defs00205.o)
                0x0000000337505b08                _errno
 .text          0x0000000337505b10        0x0 C:/Users/DuyThanh/mingw64/bin/../lib/gcc/x86_64-w64-mingw32/13.2.0/../../../../x86_64-w64-mingw32/lib/../lib/libmsvcrt.a(libmsvcrt_defs00224.o)
 .text          0x0000000337505b10        0x8 C:/Users/DuyThanh/mingw64/bin/../lib/gcc/x86_64-w64-mingw32/13.2.0/../../../../x86_64-w64-mingw32/lib/../lib/libmsvcrt.a(libmsvcrt_defs00236.o)
                0x0000000337505b10                _fileno
 .text          0x0000000337505b18        0x8 C:/Users/DuyThanh/mingw64/bin/../lib/gcc/x86_64-w64-mingw32/13.2.0/../../../../x86_64-w64-mingw32/lib/../lib/libmsvcrt.a(libmsvcrt_defs00237.o)
                0x0000000337505b18                _findclose
 .text          0x0000000337505b20        0x8 C:/Users/DuyThanh/mingw64/bin/../lib/gcc/x86_64-w64-mingw32/13.2.0/../../../../x86_64-w64-mingw32/lib/../lib/libmsvcrt.a(libmsvcrt_defs00242.o)
                0x0000000337505b20                _findfirst64
 .text          0x0000000337505b28        0x8 C:/Users/DuyThanh/mingw64/bin/../lib/gcc/x86_64-w64-mingw32/13.2.0/../../../../x86_64-w64-mingw32/lib/../lib/libmsvcrt.a(libmsvcrt_defs00245.o)
                0x0000000337505b28                _findnext64
 .text          0x0000000337505b30        0x8 C:/Users/DuyThanh/mingw64/bin/../lib/gcc/x86_64-w64-mingw32/13.2.0/../../../../x86_64-w64-mingw32/lib/../lib/libmsvcrt.a(libmsvcrt_defs00275.o)
                0x0000000337505b30                _fstat64
 .text          0x0000000337505b38        0x8 C:/Users/DuyThanh/mingw64/bin/../lib/gcc/x86_64-w64-mingw32/13.2.0/../../../../x86_64-w64-mingw32/lib/../lib/libmsvcrt.a(libmsvcrt_defs00282.o)
                0x0000000337505b38                _fullpath
 .text          0x0000000337505b40        0x8 C:/Users/DuyThanh/mingw64/bin/../lib/gcc/x86_64-w64-mingw32/13.2.0/../../../../x86_64-w64-mingw32/lib/../lib/libmsvcrt.a(libmsvcrt_defs00298.o)
                0x0000000337505b40                _get_osfhandle
 .text          0x0000000337505b48        0x8 C:/Users/DuyThanh/mingw64/bin/../lib/gcc/x86_64-w64-mingw32/13.2.0/../../../../x86_64-w64-mingw32/lib/../lib/libmsvcrt.a(libmsvcrt_defs00314.o)
                0x0000000337505b48                getpid
 .text          0x0000000337505b50        0x8 C:/Users/DuyThanh/mingw64/bin/../lib/gcc/x86_64-w64-mingw32/13.2.0/../../../../x86_64-w64-mingw32/lib/../lib/libmsvcrt.a(libmsvcrt_defs00337.o)
                0x0000000337505b50                _initterm
 .text          0x0000000337505b58        0x8 C:/Users/DuyThanh/mingw64/bin/../lib/gcc/x86_64-w64-mingw32/13.2.0/../../../../x86_64-w64-mingw32/lib/../lib/libmsvcrt.a(libmsvcrt_defs00342.o)
                0x0000000337505b58                _isatty
 .text          0x0000000337505b60        0x8 C:/Users/DuyThanh/mingw64/bin/../lib/gcc/x86_64-w64-mingw32/13.2.0/../../../../x86_64-w64-mingw32/lib/../lib/libmsvcrt.a(libmsvcrt_defs00445.o)
                0x0000000337505b60                _localtime64
 .text          0x0000000337505b68        0x8 C:/Users/DuyThanh/mingw64/bin/../lib/gcc/x86_64-w64-mingw32/13.2.0/../../../../x86_64-w64-mingw32/lib/../lib/libmsvcrt.a(libmsvcrt_defs00446.o)
                0x0000000337505b68                _lock
 .text          0x0000000337505b70        0x8 C:/Users/DuyThanh/mingw64/bin/../lib/gcc/x86_64-w64-mingw32/13.2.0/../../../../x86_64-w64-mingw32/lib/../lib/libmsvcrt.a(libmsvcrt_defs00607.o)
                0x0000000337505b70                _mkdir
 .text          0x0000000337505b78        0x8 C:/Users/DuyThanh/mingw64/bin/../lib/gcc/x86_64-w64-mingw32/13.2.0/../../../../x86_64-w64-mingw32/lib/../lib/libmsvcrt.a(libmsvcrt_defs00624.o)
                0x0000000337505b78                _pclose
 .text          0x0000000337505b80        0x8 C:/Users/DuyThanh/mingw64/bin/../lib/gcc/x86_64-w64-mingw32/13.2.0/../../../../x86_64-w64-mingw32/lib/../lib/libmsvcrt.a(libmsvcrt_defs00629.o)
                0x0000000337505b80                _popen
 .text          0x0000000337505b88        0x8 C:/Users/DuyThanh/mingw64/bin/../lib/gcc/x86_64-w64-mingw32/13.2.0/../../../../x86_64-w64-mingw32/lib/../lib/libmsvcrt.a(libmsvcrt_defs00683.o)
                0x0000000337505b88                _setmode
 .text          0x0000000337505b90        0x8 C:/Users/DuyThanh/mingw64/bin/../lib/gcc/x86_64-w64-mingw32/13.2.0/../../../../x86_64-w64-mingw32/lib/../lib/libmsvcrt.a(libmsvcrt_defs00732.o)
                0x0000000337505b90                _stat64
 .text          0x0000000337505b98        0x8 C:/Users/DuyThanh/mingw64/bin/../lib/gcc/x86_64-w64-mingw32/13.2.0/../../../../x86_64-w64-mingw32/lib/../lib/libmsvcrt.a(libmsvcrt_defs00741.o)
                0x0000000337505b98                _strdup
 .text          0x0000000337505ba0        0x8 C:/Users/DuyThanh/mingw64/bin/../lib/gcc/x86_64-w64-mingw32/13.2.0/../../../../x86_64-w64-mingw32/lib/../lib/libmsvcrt.a(libmsvcrt_defs00778.o)
                0x0000000337505ba0                strtoll
 .text          0x0000000337505ba8        0x8 C:/Users/DuyThanh/mingw64/bin/../lib/gcc/x86_64-w64-mingw32/13.2.0/../../../../x86_64-w64-mingw32/lib/../lib/libmsvcrt.a(libmsvcrt_defs00781.o)
                0x0000000337505ba8                strtoull
 .text          0x0000000337505bb0        0x8 C:/Users/DuyThanh/mingw64/bin/../lib/gcc/x86_64-w64-mingw32/13.2.0/../../../../x86_64-w64-mingw32/lib/../lib/libmsvcrt.a(libmsvcrt_defs00833.o)
                0x0000000337505bb0                _unlink
 .text          0x0000000337505bb8        0x8 C:/Users/DuyThanh/mingw64/bin/../lib/gcc/x86_64-w64-mingw32/13.2.0/../../../../x86_64-w64-mingw32/lib/../lib/libmsvcrt.a(libmsvcrt_defs00837.o)
                0x0000000337505bb8                _unlock
 .text          0x0000000337505bc0        0x8 C:/Users/DuyThanh/mingw64/bin/../lib/gcc/x86_64-w64-mingw32/13.2.0/../../../../x86_64-w64-mingw32/lib/../lib/libmsvcrt.a(libmsvcrt_defs01045.o)
                0x0000000337505bc0                _wunlink
 .text          0x0000000337505bc8        0x8 C:/Users/DuyThanh/mingw64/bin/../lib/gcc/x86_64-w64-mingw32/13.2.0/../../../../x86_64-w64-mingw32/lib/../lib/libmsvcrt.a(libmsvcrt_defs01054.o)
                0x0000000337505bc8                abort
 .text          0x0000000337505bd0        0x8 C:/Users/DuyThanh/mingw64/bin/../lib/gcc/x86_64-w64-mingw32/13.2.0/../../../../x86_64-w64-mingw32/lib/../lib/libmsvcrt.a(libmsvcrt_defs01067.o)
                0x0000000337505bd0                atoi
 .text          0x0000000337505bd8        0x8 C:/Users/DuyThanh/mingw64/bin/../lib/gcc/x86_64-w64-mingw32/13.2.0/../../../../x86_64-w64-mingw32/lib/../lib/libmsvcrt.a(libmsvcrt_defs01071.o)
                0x0000000337505bd8                calloc
 .text          0x0000000337505be0        0x0 C:/Users/DuyThanh/mingw64/bin/../lib/gcc/x86_64-w64-mingw32/13.2.0/../../../../x86_64-w64-mingw32/lib/../lib/libmsvcrt.a(libmsvcrt_defs01085.o)
 .text          0x0000000337505be0        0x8 C:/Users/DuyThanh/mingw64/bin/../lib/gcc/x86_64-w64-mingw32/13.2.0/../../../../x86_64-w64-mingw32/lib/../lib/libmsvcrt.a(libmsvcrt_defs01089.o)
                0x0000000337505be0                fclose
 .text          0x0000000337505be8        0x8 C:/Users/DuyThanh/mingw64/bin/../lib/gcc/x86_64-w64-mingw32/13.2.0/../../../../x86_64-w64-mingw32/lib/../lib/libmsvcrt.a(libmsvcrt_defs01092.o)
                0x0000000337505be8                fflush
 .text          0x0000000337505bf0        0x8 C:/Users/DuyThanh/mingw64/bin/../lib/gcc/x86_64-w64-mingw32/13.2.0/../../../../x86_64-w64-mingw32/lib/../lib/libmsvcrt.a(libmsvcrt_defs01093.o)
                0x0000000337505bf0                fgetc
 .text          0x0000000337505bf8        0x8 C:/Users/DuyThanh/mingw64/bin/../lib/gcc/x86_64-w64-mingw32/13.2.0/../../../../x86_64-w64-mingw32/lib/../lib/libmsvcrt.a(libmsvcrt_defs01095.o)
                0x0000000337505bf8                fgets
 .text          0x0000000337505c00        0x8 C:/Users/DuyThanh/mingw64/bin/../lib/gcc/x86_64-w64-mingw32/13.2.0/../../../../x86_64-w64-mingw32/lib/../lib/libmsvcrt.a(libmsvcrt_defs01102.o)
                0x0000000337505c00                fopen
 .text          0x0000000337505c08        0x8 C:/Users/DuyThanh/mingw64/bin/../lib/gcc/x86_64-w64-mingw32/13.2.0/../../../../x86_64-w64-mingw32/lib/../lib/libmsvcrt.a(libmsvcrt_defs01107.o)
                0x0000000337505c08                fputc
 .text          0x0000000337505c10        0x8 C:/Users/DuyThanh/mingw64/bin/../lib/gcc/x86_64-w64-mingw32/13.2.0/../../../../x86_64-w64-mingw32/lib/../lib/libmsvcrt.a(libmsvcrt_defs01108.o)
                0x0000000337505c10                fputs
 .text          0x0000000337505c18        0x8 C:/Users/DuyThanh/mingw64/bin/../lib/gcc/x86_64-w64-mingw32/13.2.0/../../../../x86_64-w64-mingw32/lib/../lib/libmsvcrt.a(libmsvcrt_defs01111.o)
                0x0000000337505c18                fread
 .text          0x0000000337505c20        0x8 C:/Users/DuyThanh/mingw64/bin/../lib/gcc/x86_64-w64-mingw32/13.2.0/../../../../x86_64-w64-mingw32/lib/../lib/libmsvcrt.a(libmsvcrt_defs01112.o)
                0x0000000337505c20                free
 .text          0x0000000337505c28        0x8 C:/Users/DuyThanh/mingw64/bin/../lib/gcc/x86_64-w64-mingw32/13.2.0/../../../../x86_64-w64-mingw32/lib/../lib/libmsvcrt.a(libmsvcrt_defs01121.o)
                0x0000000337505c28                fseek
 .text          0x0000000337505c30        0x8 C:/Users/DuyThanh/mingw64/bin/../lib/gcc/x86_64-w64-mingw32/13.2.0/../../../../x86_64-w64-mingw32/lib/../lib/libmsvcrt.a(libmsvcrt_defs01122.o)
                0x0000000337505c30                ftell
 .text          0x0000000337505c38        0x8 C:/Users/DuyThanh/mingw64/bin/../lib/gcc/x86_64-w64-mingw32/13.2.0/../../../../x86_64-w64-mingw32/lib/../lib/libmsvcrt.a(libmsvcrt_defs01125.o)
                0x0000000337505c38                fwrite
 .text          0x0000000337505c40        0x8 C:/Users/DuyThanh/mingw64/bin/../lib/gcc/x86_64-w64-mingw32/13.2.0/../../../../x86_64-w64-mingw32/lib/../lib/libmsvcrt.a(libmsvcrt_defs01129.o)
                0x0000000337505c40                getc
 .text          0x0000000337505c48        0x8 C:/Users/DuyThanh/mingw64/bin/../lib/gcc/x86_64-w64-mingw32/13.2.0/../../../../x86_64-w64-mingw32/lib/../lib/libmsvcrt.a(libmsvcrt_defs01131.o)
                0x0000000337505c48                getenv
 .text          0x0000000337505c50        0x8 C:/Users/DuyThanh/mingw64/bin/../lib/gcc/x86_64-w64-mingw32/13.2.0/../../../../x86_64-w64-mingw32/lib/../lib/libmsvcrt.a(libmsvcrt_defs01138.o)
                0x0000000337505c50                isalnum
 .text          0x0000000337505c58        0x8 C:/Users/DuyThanh/mingw64/bin/../lib/gcc/x86_64-w64-mingw32/13.2.0/../../../../x86_64-w64-mingw32/lib/../lib/libmsvcrt.a(libmsvcrt_defs01139.o)
                0x0000000337505c58                isalpha
 .text          0x0000000337505c60        0x8 C:/Users/DuyThanh/mingw64/bin/../lib/gcc/x86_64-w64-mingw32/13.2.0/../../../../x86_64-w64-mingw32/lib/../lib/libmsvcrt.a(libmsvcrt_defs01145.o)
                0x0000000337505c60                isprint
 .text          0x0000000337505c68        0x8 C:/Users/DuyThanh/mingw64/bin/../lib/gcc/x86_64-w64-mingw32/13.2.0/../../../../x86_64-w64-mingw32/lib/../lib/libmsvcrt.a(libmsvcrt_defs01147.o)
                0x0000000337505c68                isspace
 .text          0x0000000337505c70        0x8 C:/Users/DuyThanh/mingw64/bin/../lib/gcc/x86_64-w64-mingw32/13.2.0/../../../../x86_64-w64-mingw32/lib/../lib/libmsvcrt.a(libmsvcrt_defs01162.o)
                0x0000000337505c70                isxdigit
 .text          0x0000000337505c78        0x8 C:/Users/DuyThanh/mingw64/bin/../lib/gcc/x86_64-w64-mingw32/13.2.0/../../../../x86_64-w64-mingw32/lib/../lib/libmsvcrt.a(libmsvcrt_defs01166.o)
                0x0000000337505c78                localeconv
 .text          0x0000000337505c80        0x8 C:/Users/DuyThanh/mingw64/bin/../lib/gcc/x86_64-w64-mingw32/13.2.0/../../../../x86_64-w64-mingw32/lib/../lib/libmsvcrt.a(libmsvcrt_defs01173.o)
                0x0000000337505c80                malloc
 .text          0x0000000337505c88        0x8 C:/Users/DuyThanh/mingw64/bin/../lib/gcc/x86_64-w64-mingw32/13.2.0/../../../../x86_64-w64-mingw32/lib/../lib/libmsvcrt.a(libmsvcrt_defs01181.o)
                0x0000000337505c88                memchr
 .text          0x0000000337505c90        0x8 C:/Users/DuyThanh/mingw64/bin/../lib/gcc/x86_64-w64-mingw32/13.2.0/../../../../x86_64-w64-mingw32/lib/../lib/libmsvcrt.a(libmsvcrt_defs01182.o)
                0x0000000337505c90                memcmp
 .text          0x0000000337505c98        0x8 C:/Users/DuyThanh/mingw64/bin/../lib/gcc/x86_64-w64-mingw32/13.2.0/../../../../x86_64-w64-mingw32/lib/../lib/libmsvcrt.a(libmsvcrt_defs01183.o)
                0x0000000337505c98                memcpy
 .text          0x0000000337505ca0        0x8 C:/Users/DuyThanh/mingw64/bin/../lib/gcc/x86_64-w64-mingw32/13.2.0/../../../../x86_64-w64-mingw32/lib/../lib/libmsvcrt.a(libmsvcrt_defs01184.o)
                0x0000000337505ca0                memmove
 .text          0x0000000337505ca8        0x8 C:/Users/DuyThanh/mingw64/bin/../lib/gcc/x86_64-w64-mingw32/13.2.0/../../../../x86_64-w64-mingw32/lib/../lib/libmsvcrt.a(libmsvcrt_defs01185.o)
                0x0000000337505ca8                memset
 .text          0x0000000337505cb0        0x8 C:/Users/DuyThanh/mingw64/bin/../lib/gcc/x86_64-w64-mingw32/13.2.0/../../../../x86_64-w64-mingw32/lib/../lib/libmsvcrt.a(libmsvcrt_defs01203.o)
                0x0000000337505cb0                realloc
 .text          0x0000000337505cb8        0x8 C:/Users/DuyThanh/mingw64/bin/../lib/gcc/x86_64-w64-mingw32/13.2.0/../../../../x86_64-w64-mingw32/lib/../lib/libmsvcrt.a(libmsvcrt_defs01206.o)
                0x0000000337505cb8                rewind
 .text          0x0000000337505cc0        0x8 C:/Users/DuyThanh/mingw64/bin/../lib/gcc/x86_64-w64-mingw32/13.2.0/../../../../x86_64-w64-mingw32/lib/../lib/libmsvcrt.a(libmsvcrt_defs01212.o)
                0x0000000337505cc0                setvbuf
 .text          0x0000000337505cc8        0x8 C:/Users/DuyThanh/mingw64/bin/../lib/gcc/x86_64-w64-mingw32/13.2.0/../../../../x86_64-w64-mingw32/lib/../lib/libmsvcrt.a(libmsvcrt_defs01228.o)
                0x0000000337505cc8                strchr
 .text          0x0000000337505cd0        0x8 C:/Users/DuyThanh/mingw64/bin/../lib/gcc/x86_64-w64-mingw32/13.2.0/../../../../x86_64-w64-mingw32/lib/../lib/libmsvcrt.a(libmsvcrt_defs01229.o)
                0x0000000337505cd0                strcmp
 .text          0x0000000337505cd8        0x8 C:/Users/DuyThanh/mingw64/bin/../lib/gcc/x86_64-w64-mingw32/13.2.0/../../../../x86_64-w64-mingw32/lib/../lib/libmsvcrt.a(libmsvcrt_defs01231.o)
                0x0000000337505cd8                strcpy
 .text          0x0000000337505ce0        0x8 C:/Users/DuyThanh/mingw64/bin/../lib/gcc/x86_64-w64-mingw32/13.2.0/../../../../x86_64-w64-mingw32/lib/../lib/libmsvcrt.a(libmsvcrt_defs01233.o)
                0x0000000337505ce0                strcspn
 .text          0x0000000337505ce8        0x8 C:/Users/DuyThanh/mingw64/bin/../lib/gcc/x86_64-w64-mingw32/13.2.0/../../../../x86_64-w64-mingw32/lib/../lib/libmsvcrt.a(libmsvcrt_defs01234.o)
                0x0000000337505ce8                strerror
 .text          0x0000000337505cf0        0x8 C:/Users/DuyThanh/mingw64/bin/../lib/gcc/x86_64-w64-mingw32/13.2.0/../../../../x86_64-w64-mingw32/lib/../lib/libmsvcrt.a(libmsvcrt_defs01236.o)
                0x0000000337505cf0                strlen
 .text          0x0000000337505cf8        0x8 C:/Users/DuyThanh/mingw64/bin/../lib/gcc/x86_64-w64-mingw32/13.2.0/../../../../x86_64-w64-mingw32/lib/../lib/libmsvcrt.a(libmsvcrt_defs01239.o)
                0x0000000337505cf8                strncmp
 .text          0x0000000337505d00        0x8 C:/Users/DuyThanh/mingw64/bin/../lib/gcc/x86_64-w64-mingw32/13.2.0/../../../../x86_64-w64-mingw32/lib/../lib/libmsvcrt.a(libmsvcrt_defs01240.o)
                0x0000000337505d00                strncpy
 .text          0x0000000337505d08        0x8 C:/Users/DuyThanh/mingw64/bin/../lib/gcc/x86_64-w64-mingw32/13.2.0/../../../../x86_64-w64-mingw32/lib/../lib/libmsvcrt.a(libmsvcrt_defs01243.o)
                0x0000000337505d08                strrchr
 .text          0x0000000337505d10        0x8 C:/Users/DuyThanh/mingw64/bin/../lib/gcc/x86_64-w64-mingw32/13.2.0/../../../../x86_64-w64-mingw32/lib/../lib/libmsvcrt.a(libmsvcrt_defs01244.o)
                0x0000000337505d10                strspn
 .text          0x0000000337505d18        0x8 C:/Users/DuyThanh/mingw64/bin/../lib/gcc/x86_64-w64-mingw32/13.2.0/../../../../x86_64-w64-mingw32/lib/../lib/libmsvcrt.a(libmsvcrt_defs01245.o)
                0x0000000337505d18                strstr
 .text          0x0000000337505d20        0x8 C:/Users/DuyThanh/mingw64/bin/../lib/gcc/x86_64-w64-mingw32/13.2.0/../../../../x86_64-w64-mingw32/lib/../lib/libmsvcrt.a(libmsvcrt_defs01249.o)
                0x0000000337505d20                strtol
 .text          0x0000000337505d28        0x8 C:/Users/DuyThanh/mingw64/bin/../lib/gcc/x86_64-w64-mingw32/13.2.0/../../../../x86_64-w64-mingw32/lib/../lib/libmsvcrt.a(libmsvcrt_defs01250.o)
                0x0000000337505d28                strtoul
 .text          0x0000000337505d30        0x8 C:/Users/DuyThanh/mingw64/bin/../lib/gcc/x86_64-w64-mingw32/13.2.0/../../../../x86_64-w64-mingw32/lib/../lib/libmsvcrt.a(libmsvcrt_defs01259.o)
                0x0000000337505d30                system
 .text          0x0000000337505d38        0x8 C:/Users/DuyThanh/mingw64/bin/../lib/gcc/x86_64-w64-mingw32/13.2.0/../../../../x86_64-w64-mingw32/lib/../lib/libmsvcrt.a(libmsvcrt_defs01267.o)
                0x0000000337505d38                tolower
 .text          0x0000000337505d40        0x8 C:/Users/DuyThanh/mingw64/bin/../lib/gcc/x86_64-w64-mingw32/13.2.0/../../../../x86_64-w64-mingw32/lib/../lib/libmsvcrt.a(libmsvcrt_defs01273.o)
                0x0000000337505d40                ungetc
 .text          0x0000000337505d48        0x8 C:/Users/DuyThanh/mingw64/bin/../lib/gcc/x86_64-w64-mingw32/13.2.0/../../../../x86_64-w64-mingw32/lib/../lib/libmsvcrt.a(libmsvcrt_defs01274.o)
                0x0000000337505d48                vfprintf
 .text          0x0000000337505d50        0x8 C:/Users/DuyThanh/mingw64/bin/../lib/gcc/x86_64-w64-mingw32/13.2.0/../../../../x86_64-w64-mingw32/lib/../lib/libmsvcrt.a(libmsvcrt_defs01300.o)
                0x0000000337505d50                wcslen
 *fill*         0x0000000337505d58        0x8 
 .text          0x0000000337505d60        0x0 C:/Users/DuyThanh/mingw64/bin/../lib/gcc/x86_64-w64-mingw32/13.2.0/../../../../x86_64-w64-mingw32/lib/../lib/libmsvcrt.a(libmsvcrt_defh.o)
 .text          0x0000000337505d60        0x0 C:/Users/DuyThanh/mingw64/bin/../lib/gcc/x86_64-w64-mingw32/13.2.0/../../../../x86_64-w64-mingw32/lib/../lib/libmsvcrt.a(libmsvcrt_deft.o)
 .text          0x0000000337505d60        0x8 C:/Users/DuyThanh/mingw64/bin/../lib/gcc/x86_64-w64-mingw32/13.2.0/../../../../x86_64-w64-mingw32/lib/../lib/libkernel32.a(libkernel32s01563.o)
                0x0000000337505d60                WriteFile
 .text          0x0000000337505d68        0x8 C:/Users/DuyThanh/mingw64/bin/../lib/gcc/x86_64-w64-mingw32/13.2.0/../../../../x86_64-w64-mingw32/lib/../lib/libkernel32.a(libkernel32s01562.o)
                0x0000000337505d68                WriteConsoleW
 .text          0x0000000337505d70        0x8 C:/Users/DuyThanh/mingw64/bin/../lib/gcc/x86_64-w64-mingw32/13.2.0/../../../../x86_64-w64-mingw32/lib/../lib/libkernel32.a(libkernel32s01543.o)
                0x0000000337505d70                WideCharToMultiByte
 .text          0x0000000337505d78        0x8 C:/Users/DuyThanh/mingw64/bin/../lib/gcc/x86_64-w64-mingw32/13.2.0/../../../../x86_64-w64-mingw32/lib/../lib/libkernel32.a(libkernel32s01500.o)
                0x0000000337505d78                WaitForSingleObjectEx
 .text          0x0000000337505d80        0x8 C:/Users/DuyThanh/mingw64/bin/../lib/gcc/x86_64-w64-mingw32/13.2.0/../../../../x86_64-w64-mingw32/lib/../lib/libkernel32.a(libkernel32s01499.o)
                0x0000000337505d80                WaitForSingleObject
 .text          0x0000000337505d88        0x8 C:/Users/DuyThanh/mingw64/bin/../lib/gcc/x86_64-w64-mingw32/13.2.0/../../../../x86_64-w64-mingw32/lib/../lib/libkernel32.a(libkernel32s01490.o)
                0x0000000337505d88                VirtualQuery
 .text          0x0000000337505d90        0x8 C:/Users/DuyThanh/mingw64/bin/../lib/gcc/x86_64-w64-mingw32/13.2.0/../../../../x86_64-w64-mingw32/lib/../lib/libkernel32.a(libkernel32s01488.o)
                0x0000000337505d90                VirtualProtect
 .text          0x0000000337505d98        0x8 C:/Users/DuyThanh/mingw64/bin/../lib/gcc/x86_64-w64-mingw32/13.2.0/../../../../x86_64-w64-mingw32/lib/../lib/libkernel32.a(libkernel32s01458.o)
                0x0000000337505d98                UnmapViewOfFile
 .text          0x0000000337505da0        0x8 C:/Users/DuyThanh/mingw64/bin/../lib/gcc/x86_64-w64-mingw32/13.2.0/../../../../x86_64-w64-mingw32/lib/../lib/libkernel32.a(libkernel32s01457.o)
                0x0000000337505da0                UnlockFileEx
 .text          0x0000000337505da8        0x8 C:/Users/DuyThanh/mingw64/bin/../lib/gcc/x86_64-w64-mingw32/13.2.0/../../../../x86_64-w64-mingw32/lib/../lib/libkernel32.a(libkernel32s01456.o)
                0x0000000337505da8                UnlockFile
 .text          0x0000000337505db0        0x8 C:/Users/DuyThanh/mingw64/bin/../lib/gcc/x86_64-w64-mingw32/13.2.0/../../../../x86_64-w64-mingw32/lib/../lib/libkernel32.a(libkernel32s01448.o)
                0x0000000337505db0                TryEnterCriticalSection
 .text          0x0000000337505db8        0x8 C:/Users/DuyThanh/mingw64/bin/../lib/gcc/x86_64-w64-mingw32/13.2.0/../../../../x86_64-w64-mingw32/lib/../lib/libkernel32.a(libkernel32s01441.o)
                0x0000000337505db8                TlsGetValue
 .text          0x0000000337505dc0        0x8 C:/Users/DuyThanh/mingw64/bin/../lib/gcc/x86_64-w64-mingw32/13.2.0/../../../../x86_64-w64-mingw32/lib/../lib/libkernel32.a(libkernel32s01417.o)
                0x0000000337505dc0                SystemTimeToFileTime
 .text          0x0000000337505dc8        0x8 C:/Users/DuyThanh/mingw64/bin/../lib/gcc/x86_64-w64-mingw32/13.2.0/../../../../x86_64-w64-mingw32/lib/../lib/libkernel32.a(libkernel32s01406.o)
                0x0000000337505dc8                Sleep
 .text          0x0000000337505dd0        0x8 C:/Users/DuyThanh/mingw64/bin/../lib/gcc/x86_64-w64-mingw32/13.2.0/../../../../x86_64-w64-mingw32/lib/../lib/libkernel32.a(libkernel32s01320.o)
                0x0000000337505dd0                SetFileTime
 .text          0x0000000337505dd8        0x8 C:/Users/DuyThanh/mingw64/bin/../lib/gcc/x86_64-w64-mingw32/13.2.0/../../../../x86_64-w64-mingw32/lib/../lib/libkernel32.a(libkernel32s01316.o)
                0x0000000337505dd8                SetFilePointer
 .text          0x0000000337505de0        0x8 C:/Users/DuyThanh/mingw64/bin/../lib/gcc/x86_64-w64-mingw32/13.2.0/../../../../x86_64-w64-mingw32/lib/../lib/libkernel32.a(libkernel32s01297.o)
                0x0000000337505de0                SetEndOfFile
 .text          0x0000000337505de8        0x8 C:/Users/DuyThanh/mingw64/bin/../lib/gcc/x86_64-w64-mingw32/13.2.0/../../../../x86_64-w64-mingw32/lib/../lib/libkernel32.a(libkernel32s01290.o)
                0x0000000337505de8                SetCurrentDirectoryW
 .text          0x0000000337505df0        0x8 C:/Users/DuyThanh/mingw64/bin/../lib/gcc/x86_64-w64-mingw32/13.2.0/../../../../x86_64-w64-mingw32/lib/../lib/libkernel32.a(libkernel32s01283.o)
                0x0000000337505df0                SetConsoleTextAttribute
 .text          0x0000000337505df8        0x8 C:/Users/DuyThanh/mingw64/bin/../lib/gcc/x86_64-w64-mingw32/13.2.0/../../../../x86_64-w64-mingw32/lib/../lib/libkernel32.a(libkernel32s01274.o)
                0x0000000337505df8                SetConsoleMode
 .text          0x0000000337505e00        0x8 C:/Users/DuyThanh/mingw64/bin/../lib/gcc/x86_64-w64-mingw32/13.2.0/../../../../x86_64-w64-mingw32/lib/../lib/libkernel32.a(libkernel32s01258.o)
                0x0000000337505e00                SetConsoleCtrlHandler
 .text          0x0000000337505e08        0x8 C:/Users/DuyThanh/mingw64/bin/../lib/gcc/x86_64-w64-mingw32/13.2.0/../../../../x86_64-w64-mingw32/lib/../lib/libkernel32.a(libkernel32s01167.o)
                0x0000000337505e08                ReadFile
 .text          0x0000000337505e10        0x8 C:/Users/DuyThanh/mingw64/bin/../lib/gcc/x86_64-w64-mingw32/13.2.0/../../../../x86_64-w64-mingw32/lib/../lib/libkernel32.a(libkernel32s01164.o)
                0x0000000337505e10                ReadConsoleW
 .text          0x0000000337505e18        0x8 C:/Users/DuyThanh/mingw64/bin/../lib/gcc/x86_64-w64-mingw32/13.2.0/../../../../x86_64-w64-mingw32/lib/../lib/libkernel32.a(libkernel32s01128.o)
                0x0000000337505e18                QueryPerformanceCounter
 .text          0x0000000337505e20        0x8 C:/Users/DuyThanh/mingw64/bin/../lib/gcc/x86_64-w64-mingw32/13.2.0/../../../../x86_64-w64-mingw32/lib/../lib/libkernel32.a(libkernel32s01076.o)
                0x0000000337505e20                OutputDebugStringW
 .text          0x0000000337505e28        0x8 C:/Users/DuyThanh/mingw64/bin/../lib/gcc/x86_64-w64-mingw32/13.2.0/../../../../x86_64-w64-mingw32/lib/../lib/libkernel32.a(libkernel32s01075.o)
                0x0000000337505e28                OutputDebugStringA
 .text          0x0000000337505e30        0x8 C:/Users/DuyThanh/mingw64/bin/../lib/gcc/x86_64-w64-mingw32/13.2.0/../../../../x86_64-w64-mingw32/lib/../lib/libkernel32.a(libkernel32s01033.o)
                0x0000000337505e30                MultiByteToWideChar
 .text          0x0000000337505e38        0x8 C:/Users/DuyThanh/mingw64/bin/../lib/gcc/x86_64-w64-mingw32/13.2.0/../../../../x86_64-w64-mingw32/lib/../lib/libkernel32.a(libkernel32s01016.o)
                0x0000000337505e38                MapViewOfFile
 .text          0x0000000337505e40        0x8 C:/Users/DuyThanh/mingw64/bin/../lib/gcc/x86_64-w64-mingw32/13.2.0/../../../../x86_64-w64-mingw32/lib/../lib/libkernel32.a(libkernel32s01012.o)
                0x0000000337505e40                LockFileEx
 .text          0x0000000337505e48        0x8 C:/Users/DuyThanh/mingw64/bin/../lib/gcc/x86_64-w64-mingw32/13.2.0/../../../../x86_64-w64-mingw32/lib/../lib/libkernel32.a(libkernel32s01011.o)
                0x0000000337505e48                LockFile
 .text          0x0000000337505e50        0x8 C:/Users/DuyThanh/mingw64/bin/../lib/gcc/x86_64-w64-mingw32/13.2.0/../../../../x86_64-w64-mingw32/lib/../lib/libkernel32.a(libkernel32s00999.o)
                0x0000000337505e50                LocalFree
 .text          0x0000000337505e58        0x8 C:/Users/DuyThanh/mingw64/bin/../lib/gcc/x86_64-w64-mingw32/13.2.0/../../../../x86_64-w64-mingw32/lib/../lib/libkernel32.a(libkernel32s00988.o)
                0x0000000337505e58                LoadLibraryW
 .text          0x0000000337505e60        0x8 C:/Users/DuyThanh/mingw64/bin/../lib/gcc/x86_64-w64-mingw32/13.2.0/../../../../x86_64-w64-mingw32/lib/../lib/libkernel32.a(libkernel32s00985.o)
                0x0000000337505e60                LoadLibraryA
 .text          0x0000000337505e68        0x8 C:/Users/DuyThanh/mingw64/bin/../lib/gcc/x86_64-w64-mingw32/13.2.0/../../../../x86_64-w64-mingw32/lib/../lib/libkernel32.a(libkernel32s00981.o)
                0x0000000337505e68                LeaveCriticalSection
 .text          0x0000000337505e70        0x8 C:/Users/DuyThanh/mingw64/bin/../lib/gcc/x86_64-w64-mingw32/13.2.0/../../../../x86_64-w64-mingw32/lib/../lib/libkernel32.a(libkernel32s00916.o)
                0x0000000337505e70                IsDBCSLeadByteEx
 .text          0x0000000337505e78        0x8 C:/Users/DuyThanh/mingw64/bin/../lib/gcc/x86_64-w64-mingw32/13.2.0/../../../../x86_64-w64-mingw32/lib/../lib/libkernel32.a(libkernel32s00889.o)
                0x0000000337505e78                InitializeCriticalSection
 .text          0x0000000337505e80        0x8 C:/Users/DuyThanh/mingw64/bin/../lib/gcc/x86_64-w64-mingw32/13.2.0/../../../../x86_64-w64-mingw32/lib/../lib/libkernel32.a(libkernel32s00876.o)
                0x0000000337505e80                HeapValidate
 .text          0x0000000337505e88        0x8 C:/Users/DuyThanh/mingw64/bin/../lib/gcc/x86_64-w64-mingw32/13.2.0/../../../../x86_64-w64-mingw32/lib/../lib/libkernel32.a(libkernel32s00872.o)
                0x0000000337505e88                HeapSize
 .text          0x0000000337505e90        0x8 C:/Users/DuyThanh/mingw64/bin/../lib/gcc/x86_64-w64-mingw32/13.2.0/../../../../x86_64-w64-mingw32/lib/../lib/libkernel32.a(libkernel32s00870.o)
                0x0000000337505e90                HeapReAlloc
 .text          0x0000000337505e98        0x8 C:/Users/DuyThanh/mingw64/bin/../lib/gcc/x86_64-w64-mingw32/13.2.0/../../../../x86_64-w64-mingw32/lib/../lib/libkernel32.a(libkernel32s00866.o)
                0x0000000337505e98                HeapFree
 .text          0x0000000337505ea0        0x8 C:/Users/DuyThanh/mingw64/bin/../lib/gcc/x86_64-w64-mingw32/13.2.0/../../../../x86_64-w64-mingw32/lib/../lib/libkernel32.a(libkernel32s00864.o)
                0x0000000337505ea0                HeapDestroy
 .text          0x0000000337505ea8        0x8 C:/Users/DuyThanh/mingw64/bin/../lib/gcc/x86_64-w64-mingw32/13.2.0/../../../../x86_64-w64-mingw32/lib/../lib/libkernel32.a(libkernel32s00862.o)
                0x0000000337505ea8                HeapCreate
 .text          0x0000000337505eb0        0x8 C:/Users/DuyThanh/mingw64/bin/../lib/gcc/x86_64-w64-mingw32/13.2.0/../../../../x86_64-w64-mingw32/lib/../lib/libkernel32.a(libkernel32s00861.o)
                0x0000000337505eb0                HeapCompact
 .text          0x0000000337505eb8        0x8 C:/Users/DuyThanh/mingw64/bin/../lib/gcc/x86_64-w64-mingw32/13.2.0/../../../../x86_64-w64-mingw32/lib/../lib/libkernel32.a(libkernel32s00860.o)
                0x0000000337505eb8                HeapAlloc
 .text          0x0000000337505ec0        0x8 C:/Users/DuyThanh/mingw64/bin/../lib/gcc/x86_64-w64-mingw32/13.2.0/../../../../x86_64-w64-mingw32/lib/../lib/libkernel32.a(libkernel32s00796.o)
                0x0000000337505ec0                GetTickCount
 .text          0x0000000337505ec8        0x8 C:/Users/DuyThanh/mingw64/bin/../lib/gcc/x86_64-w64-mingw32/13.2.0/../../../../x86_64-w64-mingw32/lib/../lib/libkernel32.a(libkernel32s00779.o)
                0x0000000337505ec8                GetTempPathW
 .text          0x0000000337505ed0        0x8 C:/Users/DuyThanh/mingw64/bin/../lib/gcc/x86_64-w64-mingw32/13.2.0/../../../../x86_64-w64-mingw32/lib/../lib/libkernel32.a(libkernel32s00778.o)
                0x0000000337505ed0                GetTempPathA
 .text          0x0000000337505ed8        0x8 C:/Users/DuyThanh/mingw64/bin/../lib/gcc/x86_64-w64-mingw32/13.2.0/../../../../x86_64-w64-mingw32/lib/../lib/libkernel32.a(libkernel32s00766.o)
                0x0000000337505ed8                GetSystemTimeAsFileTime
 .text          0x0000000337505ee0        0x8 C:/Users/DuyThanh/mingw64/bin/../lib/gcc/x86_64-w64-mingw32/13.2.0/../../../../x86_64-w64-mingw32/lib/../lib/libkernel32.a(libkernel32s00764.o)
                0x0000000337505ee0                GetSystemTime
 .text          0x0000000337505ee8        0x8 C:/Users/DuyThanh/mingw64/bin/../lib/gcc/x86_64-w64-mingw32/13.2.0/../../../../x86_64-w64-mingw32/lib/../lib/libkernel32.a(libkernel32s00760.o)
                0x0000000337505ee8                GetSystemInfo
 .text          0x0000000337505ef0        0x8 C:/Users/DuyThanh/mingw64/bin/../lib/gcc/x86_64-w64-mingw32/13.2.0/../../../../x86_64-w64-mingw32/lib/../lib/libkernel32.a(libkernel32s00743.o)
                0x0000000337505ef0                GetStdHandle
 .text          0x0000000337505ef8        0x8 C:/Users/DuyThanh/mingw64/bin/../lib/gcc/x86_64-w64-mingw32/13.2.0/../../../../x86_64-w64-mingw32/lib/../lib/libkernel32.a(libkernel32s00713.o)
                0x0000000337505ef8                GetProcessHeap
 .text          0x0000000337505f00        0x8 C:/Users/DuyThanh/mingw64/bin/../lib/gcc/x86_64-w64-mingw32/13.2.0/../../../../x86_64-w64-mingw32/lib/../lib/libkernel32.a(libkernel32s00707.o)
                0x0000000337505f00                GetProcAddress
 .text          0x0000000337505f08        0x8 C:/Users/DuyThanh/mingw64/bin/../lib/gcc/x86_64-w64-mingw32/13.2.0/../../../../x86_64-w64-mingw32/lib/../lib/libkernel32.a(libkernel32s00627.o)
                0x0000000337505f08                GetLastError
 .text          0x0000000337505f10        0x8 C:/Users/DuyThanh/mingw64/bin/../lib/gcc/x86_64-w64-mingw32/13.2.0/../../../../x86_64-w64-mingw32/lib/../lib/libkernel32.a(libkernel32s00620.o)
                0x0000000337505f10                GetFullPathNameW
 .text          0x0000000337505f18        0x8 C:/Users/DuyThanh/mingw64/bin/../lib/gcc/x86_64-w64-mingw32/13.2.0/../../../../x86_64-w64-mingw32/lib/../lib/libkernel32.a(libkernel32s00617.o)
                0x0000000337505f18                GetFullPathNameA
 .text          0x0000000337505f20        0x8 C:/Users/DuyThanh/mingw64/bin/../lib/gcc/x86_64-w64-mingw32/13.2.0/../../../../x86_64-w64-mingw32/lib/../lib/libkernel32.a(libkernel32s00609.o)
                0x0000000337505f20                GetFileType
 .text          0x0000000337505f28        0x8 C:/Users/DuyThanh/mingw64/bin/../lib/gcc/x86_64-w64-mingw32/13.2.0/../../../../x86_64-w64-mingw32/lib/../lib/libkernel32.a(libkernel32s00606.o)
                0x0000000337505f28                GetFileSize
 .text          0x0000000337505f30        0x8 C:/Users/DuyThanh/mingw64/bin/../lib/gcc/x86_64-w64-mingw32/13.2.0/../../../../x86_64-w64-mingw32/lib/../lib/libkernel32.a(libkernel32s00600.o)
                0x0000000337505f30                GetFileAttributesW
 .text          0x0000000337505f38        0x8 C:/Users/DuyThanh/mingw64/bin/../lib/gcc/x86_64-w64-mingw32/13.2.0/../../../../x86_64-w64-mingw32/lib/../lib/libkernel32.a(libkernel32s00597.o)
                0x0000000337505f38                GetFileAttributesExW
 .text          0x0000000337505f40        0x8 C:/Users/DuyThanh/mingw64/bin/../lib/gcc/x86_64-w64-mingw32/13.2.0/../../../../x86_64-w64-mingw32/lib/../lib/libkernel32.a(libkernel32s00595.o)
                0x0000000337505f40                GetFileAttributesA
 .text          0x0000000337505f48        0x8 C:/Users/DuyThanh/mingw64/bin/../lib/gcc/x86_64-w64-mingw32/13.2.0/../../../../x86_64-w64-mingw32/lib/../lib/libkernel32.a(libkernel32s00569.o)
                0x0000000337505f48                GetDiskFreeSpaceW
 .text          0x0000000337505f50        0x8 C:/Users/DuyThanh/mingw64/bin/../lib/gcc/x86_64-w64-mingw32/13.2.0/../../../../x86_64-w64-mingw32/lib/../lib/libkernel32.a(libkernel32s00566.o)
                0x0000000337505f50                GetDiskFreeSpaceA
 .text          0x0000000337505f58        0x8 C:/Users/DuyThanh/mingw64/bin/../lib/gcc/x86_64-w64-mingw32/13.2.0/../../../../x86_64-w64-mingw32/lib/../lib/libkernel32.a(libkernel32s00554.o)
                0x0000000337505f58                GetCurrentThreadId
 .text          0x0000000337505f60        0x8 C:/Users/DuyThanh/mingw64/bin/../lib/gcc/x86_64-w64-mingw32/13.2.0/../../../../x86_64-w64-mingw32/lib/../lib/libkernel32.a(libkernel32s00550.o)
                0x0000000337505f60                GetCurrentProcessId
 .text          0x0000000337505f68        0x8 C:/Users/DuyThanh/mingw64/bin/../lib/gcc/x86_64-w64-mingw32/13.2.0/../../../../x86_64-w64-mingw32/lib/../lib/libkernel32.a(libkernel32s00549.o)
                0x0000000337505f68                GetCurrentProcess
 .text          0x0000000337505f70        0x8 C:/Users/DuyThanh/mingw64/bin/../lib/gcc/x86_64-w64-mingw32/13.2.0/../../../../x86_64-w64-mingw32/lib/../lib/libkernel32.a(libkernel32s00528.o)
                0x0000000337505f70                GetConsoleScreenBufferInfo
 .text          0x0000000337505f78        0x8 C:/Users/DuyThanh/mingw64/bin/../lib/gcc/x86_64-w64-mingw32/13.2.0/../../../../x86_64-w64-mingw32/lib/../lib/libkernel32.a(libkernel32s00522.o)
                0x0000000337505f78                GetConsoleMode
 .text          0x0000000337505f80        0x8 C:/Users/DuyThanh/mingw64/bin/../lib/gcc/x86_64-w64-mingw32/13.2.0/../../../../x86_64-w64-mingw32/lib/../lib/libkernel32.a(libkernel32s00440.o)
                0x0000000337505f80                FreeLibrary
 .text          0x0000000337505f88        0x8 C:/Users/DuyThanh/mingw64/bin/../lib/gcc/x86_64-w64-mingw32/13.2.0/../../../../x86_64-w64-mingw32/lib/../lib/libkernel32.a(libkernel32s00436.o)
                0x0000000337505f88                FormatMessageW
 .text          0x0000000337505f90        0x8 C:/Users/DuyThanh/mingw64/bin/../lib/gcc/x86_64-w64-mingw32/13.2.0/../../../../x86_64-w64-mingw32/lib/../lib/libkernel32.a(libkernel32s00435.o)
                0x0000000337505f90                FormatMessageA
 .text          0x0000000337505f98        0x8 C:/Users/DuyThanh/mingw64/bin/../lib/gcc/x86_64-w64-mingw32/13.2.0/../../../../x86_64-w64-mingw32/lib/../lib/libkernel32.a(libkernel32s00431.o)
                0x0000000337505f98                FlushViewOfFile
 .text          0x0000000337505fa0        0x8 C:/Users/DuyThanh/mingw64/bin/../lib/gcc/x86_64-w64-mingw32/13.2.0/../../../../x86_64-w64-mingw32/lib/../lib/libkernel32.a(libkernel32s00428.o)
                0x0000000337505fa0                FlushFileBuffers
 .text          0x0000000337505fa8        0x8 C:/Users/DuyThanh/mingw64/bin/../lib/gcc/x86_64-w64-mingw32/13.2.0/../../../../x86_64-w64-mingw32/lib/../lib/libkernel32.a(libkernel32s00397.o)
                0x0000000337505fa8                FindFirstFileW
 .text          0x0000000337505fb0        0x8 C:/Users/DuyThanh/mingw64/bin/../lib/gcc/x86_64-w64-mingw32/13.2.0/../../../../x86_64-w64-mingw32/lib/../lib/libkernel32.a(libkernel32s00386.o)
                0x0000000337505fb0                FindClose
 .text          0x0000000337505fb8        0x8 C:/Users/DuyThanh/mingw64/bin/../lib/gcc/x86_64-w64-mingw32/13.2.0/../../../../x86_64-w64-mingw32/lib/../lib/libkernel32.a(libkernel32s00316.o)
                0x0000000337505fb8                EnterCriticalSection
 .text          0x0000000337505fc0        0x8 C:/Users/DuyThanh/mingw64/bin/../lib/gcc/x86_64-w64-mingw32/13.2.0/../../../../x86_64-w64-mingw32/lib/../lib/libkernel32.a(libkernel32s00285.o)
                0x0000000337505fc0                DeleteFileW
 .text          0x0000000337505fc8        0x8 C:/Users/DuyThanh/mingw64/bin/../lib/gcc/x86_64-w64-mingw32/13.2.0/../../../../x86_64-w64-mingw32/lib/../lib/libkernel32.a(libkernel32s00282.o)
                0x0000000337505fc8                DeleteFileA
 .text          0x0000000337505fd0        0x8 C:/Users/DuyThanh/mingw64/bin/../lib/gcc/x86_64-w64-mingw32/13.2.0/../../../../x86_64-w64-mingw32/lib/../lib/libkernel32.a(libkernel32s00280.o)
                0x0000000337505fd0                DeleteCriticalSection
 .text          0x0000000337505fd8        0x8 C:/Users/DuyThanh/mingw64/bin/../lib/gcc/x86_64-w64-mingw32/13.2.0/../../../../x86_64-w64-mingw32/lib/../lib/libkernel32.a(libkernel32s00270.o)
                0x0000000337505fd8                DebugBreak
 .text          0x0000000337505fe0        0x8 C:/Users/DuyThanh/mingw64/bin/../lib/gcc/x86_64-w64-mingw32/13.2.0/../../../../x86_64-w64-mingw32/lib/../lib/libkernel32.a(libkernel32s00226.o)
                0x0000000337505fe0                CreateMutexW
 .text          0x0000000337505fe8        0x8 C:/Users/DuyThanh/mingw64/bin/../lib/gcc/x86_64-w64-mingw32/13.2.0/../../../../x86_64-w64-mingw32/lib/../lib/libkernel32.a(libkernel32s00211.o)
                0x0000000337505fe8                CreateFileW
 .text          0x0000000337505ff0        0x8 C:/Users/DuyThanh/mingw64/bin/../lib/gcc/x86_64-w64-mingw32/13.2.0/../../../../x86_64-w64-mingw32/lib/../lib/libkernel32.a(libkernel32s00208.o)
                0x0000000337505ff0                CreateFileMappingW
 .text          0x0000000337505ff8        0x8 C:/Users/DuyThanh/mingw64/bin/../lib/gcc/x86_64-w64-mingw32/13.2.0/../../../../x86_64-w64-mingw32/lib/../lib/libkernel32.a(libkernel32s00203.o)
                0x0000000337505ff8                CreateFileA
 .text          0x0000000337506000        0x8 C:/Users/DuyThanh/mingw64/bin/../lib/gcc/x86_64-w64-mingw32/13.2.0/../../../../x86_64-w64-mingw32/lib/../lib/libkernel32.a(libkernel32s00140.o)
                0x0000000337506000                CloseHandle
 .text          0x0000000337506008        0x8 C:/Users/DuyThanh/mingw64/bin/../lib/gcc/x86_64-w64-mingw32/13.2.0/../../../../x86_64-w64-mingw32/lib/../lib/libkernel32.a(libkernel32s00035.o)
                0x0000000337506008                AreFileApisANSI
 .text          0x0000000337506010        0x0 C:/Users/DuyThanh/mingw64/bin/../lib/gcc/x86_64-w64-mingw32/13.2.0/../../../../x86_64-w64-mingw32/lib/../lib/libkernel32.a(libkernel32h.o)
 .text          0x0000000337506010        0x0 C:/Users/DuyThanh/mingw64/bin/../lib/gcc/x86_64-w64-mingw32/13.2.0/../../../../x86_64-w64-mingw32/lib/../lib/libkernel32.a(libkernel32t.o)
 .text          0x0000000337506010        0x0 C:/Users/DuyThanh/mingw64/bin/../lib/gcc/x86_64-w64-mingw32/13.2.0/crtend.o
 *(SORT_BY_NAME(.text$*))
 *(.text.*)
 .text.startup  0x0000000337506010       0x10 C:/Users/DuyThanh/mingw64/bin/../lib/gcc/x86_64-w64-mingw32/13.2.0/crtend.o
 *(.gnu.linkonce.t.*)
 *(.glue_7t)
 *(.glue_7)
                0x0000000337506020                . = ALIGN (0x8)
                0x0000000337506020                ___CTOR_LIST__ = .
                0x0000000337506020                __CTOR_LIST__ = .
                0x0000000337506020        0x4 LONG 0xffffffffffffffff
                0x0000000337506024        0x4 LONG 0xffffffffffffffff
 *(.ctors)
 *(.ctor)
 *(SORT_BY_NAME(.ctors.*))
 .ctors.65535   0x0000000337506028        0x8 C:/Users/DuyThanh/mingw64/bin/../lib/gcc/x86_64-w64-mingw32/13.2.0/crtend.o
                0x0000000337506030        0x4 LONG 0x0
                0x0000000337506034        0x4 LONG 0x0
                0x0000000337506038                ___DTOR_LIST__ = .
                0x0000000337506038                __DTOR_LIST__ = .
                0x0000000337506038        0x4 LONG 0xffffffffffffffff
                0x000000033750603c        0x4 LONG 0xffffffffffffffff
 *(.dtors)
 *(.dtor)
 *(SORT_BY_NAME(.dtors.*))
                0x0000000337506040        0x4 LONG 0x0
                0x0000000337506044        0x4 LONG 0x0
 *(SORT_NONE(.fini))
 *(.gcc_exc)
                [!provide]                        PROVIDE (etext = .)
 *(.gcc_except_table)

.data           0x0000000337507000     0x4400
                0x0000000337507000                __data_start__ = .
 *(.data)
 .data          0x0000000337507000       0x10 C:/Users/DuyThanh/mingw64/bin/../lib/gcc/x86_64-w64-mingw32/13.2.0/../../../../x86_64-w64-mingw32/lib/../lib/dllcrt2.o
                0x0000000337507000                __mingw_module_is_dll
 .data          0x0000000337507010        0x0 C:/Users/DuyThanh/mingw64/bin/../lib/gcc/x86_64-w64-mingw32/13.2.0/crtbegin.o
 *fill*         0x0000000337507010       0x10 
 .data          0x0000000337507020      0x140 C:\Users\DuyThanh\AppData\Local\Temp\ccRJjOEn.o
                0x0000000337507020                b64invs
 .data          0x0000000337507160      0x5c0 C:\Users\DuyThanh\AppData\Local\Temp\cclGozRv.o
 .data          0x0000000337507720     0x3ac0 C:\Users\DuyThanh\AppData\Local\Temp\ccsXH6CC.o
 .data          0x000000033750b1e0       0x10 C:/Users/DuyThanh/mingw64/bin/../lib/gcc/x86_64-w64-mingw32/13.2.0/../../../../x86_64-w64-mingw32/lib/../lib/libmingw32.a(lib64_libmingw32_a-gccmain.o)
 .data          0x000000033750b1f0       0x10 C:/Users/DuyThanh/mingw64/bin/../lib/gcc/x86_64-w64-mingw32/13.2.0/../../../../x86_64-w64-mingw32/lib/../lib/libmingw32.a(lib64_libmingw32_a-natstart.o)
                0x000000033750b1f0                __native_vcclrit_reason
                0x000000033750b1f4                __native_dllmain_reason
 .data          0x000000033750b200        0x0 C:/Users/DuyThanh/mingw64/bin/../lib/gcc/x86_64-w64-mingw32/13.2.0/../../../../x86_64-w64-mingw32/lib/../lib/libmingw32.a(lib64_libmingw32_a-tlssup.o)
 .data          0x000000033750b200        0x0 C:/Users/DuyThanh/mingw64/bin/../lib/gcc/x86_64-w64-mingw32/13.2.0/../../../../x86_64-w64-mingw32/lib/../lib/libmingw32.a(lib64_libmingw32_a-cinitexe.o)
 .data          0x000000033750b200        0x0 C:/Users/DuyThanh/mingw64/bin/../lib/gcc/x86_64-w64-mingw32/13.2.0/../../../../x86_64-w64-mingw32/lib/../lib/libmingw32.a(lib64_libmingw32_a-mingw_helpers.o)
 .data          0x000000033750b200        0x0 C:/Users/DuyThanh/mingw64/bin/../lib/gcc/x86_64-w64-mingw32/13.2.0/../../../../x86_64-w64-mingw32/lib/../lib/libmingw32.a(lib64_libmingw32_a-pseudo-reloc.o)
 .data          0x000000033750b200        0x0 C:/Users/DuyThanh/mingw64/bin/../lib/gcc/x86_64-w64-mingw32/13.2.0/../../../../x86_64-w64-mingw32/lib/../lib/libmingw32.a(lib64_libmingw32_a-tlsthrd.o)
 .data          0x000000033750b200       0x10 C:/Users/DuyThanh/mingw64/bin/../lib/gcc/x86_64-w64-mingw32/13.2.0/../../../../x86_64-w64-mingw32/lib/../lib/libmingw32.a(lib64_libmingw32_a-tlsmcrt.o)
                0x000000033750b200                _CRT_MT
 .data          0x000000033750b210        0x0 C:/Users/DuyThanh/mingw64/bin/../lib/gcc/x86_64-w64-mingw32/13.2.0/../../../../x86_64-w64-mingw32/lib/../lib/libmingw32.a(lib64_libmingw32_a-exit_wrappers.o)
 .data          0x000000033750b210        0x0 C:/Users/DuyThanh/mingw64/bin/../lib/gcc/x86_64-w64-mingw32/13.2.0/../../../../x86_64-w64-mingw32/lib/../lib/libmingw32.a(lib64_libmingw32_a-pseudo-reloc-list.o)
 .data          0x000000033750b210        0x0 C:/Users/DuyThanh/mingw64/bin/../lib/gcc/x86_64-w64-mingw32/13.2.0/../../../../x86_64-w64-mingw32/lib/../lib/libmingw32.a(lib64_libmingw32_a-pesect.o)
 .data          0x000000033750b210        0x0 C:/Users/DuyThanh/mingw64/bin/../lib/gcc/x86_64-w64-mingw32/13.2.0/../../../../x86_64-w64-mingw32/lib/../lib/libmingw32.a(lib64_libmingw32_a-CRT_fp10.o)
 .data          0x000000033750b210        0x0 C:/Users/DuyThanh/mingw64/bin/../lib/gcc/x86_64-w64-mingw32/13.2.0/libgcc.a(_chkstk_ms.o)
 .data          0x000000033750b210        0x0 C:/Users/DuyThanh/mingw64/bin/../lib/gcc/x86_64-w64-mingw32/13.2.0/libgcc.a(_ctors.o)
 .data          0x000000033750b210        0x0 C:/Users/DuyThanh/mingw64/bin/../lib/gcc/x86_64-w64-mingw32/13.2.0/../../../../x86_64-w64-mingw32/lib/../lib/libmingwex.a(lib64_libmingwex_a-dllentry.o)
 .data          0x000000033750b210        0x0 C:/Users/DuyThanh/mingw64/bin/../lib/gcc/x86_64-w64-mingw32/13.2.0/../../../../x86_64-w64-mingw32/lib/../lib/libmingwex.a(lib64_libmingwex_a-dllmain.o)
 .data          0x000000033750b210       0x20 C:/Users/DuyThanh/mingw64/bin/../lib/gcc/x86_64-w64-mingw32/13.2.0/../../../../x86_64-w64-mingw32/lib/../lib/libmingwex.a(lib64_libmingwex_a-strtodnrp.o)
 .data          0x000000033750b230        0x0 C:/Users/DuyThanh/mingw64/bin/../lib/gcc/x86_64-w64-mingw32/13.2.0/../../../../x86_64-w64-mingw32/lib/../lib/libmingwex.a(lib64_libmingwex_a-dirent.o)
 .data          0x000000033750b230        0x0 C:/Users/DuyThanh/mingw64/bin/../lib/gcc/x86_64-w64-mingw32/13.2.0/../../../../x86_64-w64-mingw32/lib/../lib/libmingwex.a(lib64_libmingwex_a-mingw_vfprintf.o)
 .data          0x000000033750b230        0x0 C:/Users/DuyThanh/mingw64/bin/../lib/gcc/x86_64-w64-mingw32/13.2.0/../../../../x86_64-w64-mingw32/lib/../lib/libmingwex.a(lib64_libmingwex_a-mingw_vfscanf.o)
 .data          0x000000033750b230        0x0 C:/Users/DuyThanh/mingw64/bin/../lib/gcc/x86_64-w64-mingw32/13.2.0/../../../../x86_64-w64-mingw32/lib/../lib/libmingwex.a(lib64_libmingwex_a-strtodg.o)
 .data          0x000000033750b230       0x20 C:/Users/DuyThanh/mingw64/bin/../lib/gcc/x86_64-w64-mingw32/13.2.0/../../../../x86_64-w64-mingw32/lib/../lib/libmingwex.a(lib64_libmingwex_a-strtof.o)
 .data          0x000000033750b250       0x20 C:/Users/DuyThanh/mingw64/bin/../lib/gcc/x86_64-w64-mingw32/13.2.0/../../../../x86_64-w64-mingw32/lib/../lib/libmingwex.a(lib64_libmingwex_a-strtopx.o)
 .data          0x000000033750b270        0x0 C:/Users/DuyThanh/mingw64/bin/../lib/gcc/x86_64-w64-mingw32/13.2.0/../../../../x86_64-w64-mingw32/lib/../lib/libmingwex.a(lib64_libmingwex_a-sum.o)
 .data          0x000000033750b270       0x20 C:/Users/DuyThanh/mingw64/bin/../lib/gcc/x86_64-w64-mingw32/13.2.0/../../../../x86_64-w64-mingw32/lib/../lib/libmingwex.a(lib64_libmingwex_a-mingw_pformat.o)
 .data          0x000000033750b290        0x0 C:/Users/DuyThanh/mingw64/bin/../lib/gcc/x86_64-w64-mingw32/13.2.0/../../../../x86_64-w64-mingw32/lib/../lib/libmingwex.a(lib64_libmingwex_a-dmisc.o)
 .data          0x000000033750b290        0x0 C:/Users/DuyThanh/mingw64/bin/../lib/gcc/x86_64-w64-mingw32/13.2.0/../../../../x86_64-w64-mingw32/lib/../lib/libmingwex.a(lib64_libmingwex_a-gdtoa.o)
 .data          0x000000033750b290        0x0 C:/Users/DuyThanh/mingw64/bin/../lib/gcc/x86_64-w64-mingw32/13.2.0/../../../../x86_64-w64-mingw32/lib/../lib/libmingwex.a(lib64_libmingwex_a-gethex.o)
 .data          0x000000033750b290        0x0 C:/Users/DuyThanh/mingw64/bin/../lib/gcc/x86_64-w64-mingw32/13.2.0/../../../../x86_64-w64-mingw32/lib/../lib/libmingwex.a(lib64_libmingwex_a-gmisc.o)
 .data          0x000000033750b290        0x0 C:/Users/DuyThanh/mingw64/bin/../lib/gcc/x86_64-w64-mingw32/13.2.0/../../../../x86_64-w64-mingw32/lib/../lib/libmingwex.a(lib64_libmingwex_a-hd_init.o)
 .data          0x000000033750b290        0x0 C:/Users/DuyThanh/mingw64/bin/../lib/gcc/x86_64-w64-mingw32/13.2.0/../../../../x86_64-w64-mingw32/lib/../lib/libmingwex.a(lib64_libmingwex_a-hexnan.o)
 .data          0x000000033750b290       0x10 C:/Users/DuyThanh/mingw64/bin/../lib/gcc/x86_64-w64-mingw32/13.2.0/../../../../x86_64-w64-mingw32/lib/../lib/libmingwex.a(lib64_libmingwex_a-misc.o)
 .data          0x000000033750b2a0        0x0 C:/Users/DuyThanh/mingw64/bin/../lib/gcc/x86_64-w64-mingw32/13.2.0/../../../../x86_64-w64-mingw32/lib/../lib/libmingwex.a(lib64_libmingwex_a-smisc.o)
 .data          0x000000033750b2a0        0x0 C:/Users/DuyThanh/mingw64/bin/../lib/gcc/x86_64-w64-mingw32/13.2.0/../../../../x86_64-w64-mingw32/lib/../lib/libmingwex.a(lib64_libmingwex_a-strnlen.o)
 .data          0x000000033750b2a0        0x0 C:/Users/DuyThanh/mingw64/bin/../lib/gcc/x86_64-w64-mingw32/13.2.0/../../../../x86_64-w64-mingw32/lib/../lib/libmingwex.a(lib64_libmingwex_a-wcsnlen.o)
 .data          0x000000033750b2a0       0x10 C:/Users/DuyThanh/mingw64/bin/../lib/gcc/x86_64-w64-mingw32/13.2.0/../../../../x86_64-w64-mingw32/lib/../lib/libmsvcrt.a(lib64_libmsvcrt_extra_a-mingw_lock.o)
                0x000000033750b2a0                __imp__unlock_file
                0x000000033750b2a8                __imp__lock_file
 .data          0x000000033750b2b0       0x10 C:/Users/DuyThanh/mingw64/bin/../lib/gcc/x86_64-w64-mingw32/13.2.0/../../../../x86_64-w64-mingw32/lib/../lib/libmsvcrt.a(lib64_libmsvcrt_common_a-acrt_iob_func.o)
                0x000000033750b2b0                __imp___acrt_iob_func
 .data          0x000000033750b2c0        0x0 C:/Users/DuyThanh/mingw64/bin/../lib/gcc/x86_64-w64-mingw32/13.2.0/../../../../x86_64-w64-mingw32/lib/../lib/libmsvcrt.a(lib64_libmsvcrt_common_a-wcrtomb.o)
 .data          0x000000033750b2c0       0x20 C:/Users/DuyThanh/mingw64/bin/../lib/gcc/x86_64-w64-mingw32/13.2.0/../../../../x86_64-w64-mingw32/lib/../lib/libmsvcrt.a(lib64_libmsvcrt_common_a-onexit_table.o)
                0x000000033750b2c0                __imp__execute_onexit_table
                0x000000033750b2c8                __imp__register_onexit_function
                0x000000033750b2d0                __imp__initialize_onexit_table
 .data          0x000000033750b2e0        0x0 C:/Users/DuyThanh/mingw64/bin/../lib/gcc/x86_64-w64-mingw32/13.2.0/../../../../x86_64-w64-mingw32/lib/../lib/libmsvcrt.a(lib64_libmsvcrt_common_a-mbrtowc.o)
 .data          0x000000033750b2e0        0x0 C:/Users/DuyThanh/mingw64/bin/../lib/gcc/x86_64-w64-mingw32/13.2.0/../../../../x86_64-w64-mingw32/lib/../lib/libmsvcrt.a(libmsvcrt_defs00063.o)
 .data          0x000000033750b2e0        0x0 C:/Users/DuyThanh/mingw64/bin/../lib/gcc/x86_64-w64-mingw32/13.2.0/../../../../x86_64-w64-mingw32/lib/../lib/libmsvcrt.a(libmsvcrt_defs00066.o)
 .data          0x000000033750b2e0        0x0 C:/Users/DuyThanh/mingw64/bin/../lib/gcc/x86_64-w64-mingw32/13.2.0/../../../../x86_64-w64-mingw32/lib/../lib/libmsvcrt.a(libmsvcrt_defs00083.o)
 .data          0x000000033750b2e0        0x0 C:/Users/DuyThanh/mingw64/bin/../lib/gcc/x86_64-w64-mingw32/13.2.0/../../../../x86_64-w64-mingw32/lib/../lib/libmsvcrt.a(libmsvcrt_defs00114.o)
 .data          0x000000033750b2e0        0x0 C:/Users/DuyThanh/mingw64/bin/../lib/gcc/x86_64-w64-mingw32/13.2.0/../../../../x86_64-w64-mingw32/lib/../lib/libmsvcrt.a(libmsvcrt_defs00124.o)
 .data          0x000000033750b2e0        0x0 C:/Users/DuyThanh/mingw64/bin/../lib/gcc/x86_64-w64-mingw32/13.2.0/../../../../x86_64-w64-mingw32/lib/../lib/libmsvcrt.a(libmsvcrt_defs00125.o)
 .data          0x000000033750b2e0        0x0 C:/Users/DuyThanh/mingw64/bin/../lib/gcc/x86_64-w64-mingw32/13.2.0/../../../../x86_64-w64-mingw32/lib/../lib/libmsvcrt.a(libmsvcrt_defs00140.o)
 .data          0x000000033750b2e0        0x0 C:/Users/DuyThanh/mingw64/bin/../lib/gcc/x86_64-w64-mingw32/13.2.0/../../../../x86_64-w64-mingw32/lib/../lib/libmsvcrt.a(libmsvcrt_defs00154.o)
 .data          0x000000033750b2e0        0x0 C:/Users/DuyThanh/mingw64/bin/../lib/gcc/x86_64-w64-mingw32/13.2.0/../../../../x86_64-w64-mingw32/lib/../lib/libmsvcrt.a(libmsvcrt_defs00202.o)
 .data          0x000000033750b2e0        0x0 C:/Users/DuyThanh/mingw64/bin/../lib/gcc/x86_64-w64-mingw32/13.2.0/../../../../x86_64-w64-mingw32/lib/../lib/libmsvcrt.a(libmsvcrt_defs00205.o)
 .data          0x000000033750b2e0        0x0 C:/Users/DuyThanh/mingw64/bin/../lib/gcc/x86_64-w64-mingw32/13.2.0/../../../../x86_64-w64-mingw32/lib/../lib/libmsvcrt.a(libmsvcrt_defs00224.o)
 .data          0x000000033750b2e0        0x0 C:/Users/DuyThanh/mingw64/bin/../lib/gcc/x86_64-w64-mingw32/13.2.0/../../../../x86_64-w64-mingw32/lib/../lib/libmsvcrt.a(libmsvcrt_defs00236.o)
 .data          0x000000033750b2e0        0x0 C:/Users/DuyThanh/mingw64/bin/../lib/gcc/x86_64-w64-mingw32/13.2.0/../../../../x86_64-w64-mingw32/lib/../lib/libmsvcrt.a(libmsvcrt_defs00237.o)
 .data          0x000000033750b2e0        0x0 C:/Users/DuyThanh/mingw64/bin/../lib/gcc/x86_64-w64-mingw32/13.2.0/../../../../x86_64-w64-mingw32/lib/../lib/libmsvcrt.a(libmsvcrt_defs00242.o)
 .data          0x000000033750b2e0        0x0 C:/Users/DuyThanh/mingw64/bin/../lib/gcc/x86_64-w64-mingw32/13.2.0/../../../../x86_64-w64-mingw32/lib/../lib/libmsvcrt.a(libmsvcrt_defs00245.o)
 .data          0x000000033750b2e0        0x0 C:/Users/DuyThanh/mingw64/bin/../lib/gcc/x86_64-w64-mingw32/13.2.0/../../../../x86_64-w64-mingw32/lib/../lib/libmsvcrt.a(libmsvcrt_defs00275.o)
 .data          0x000000033750b2e0        0x0 C:/Users/DuyThanh/mingw64/bin/../lib/gcc/x86_64-w64-mingw32/13.2.0/../../../../x86_64-w64-mingw32/lib/../lib/libmsvcrt.a(libmsvcrt_defs00282.o)
 .data          0x000000033750b2e0        0x0 C:/Users/DuyThanh/mingw64/bin/../lib/gcc/x86_64-w64-mingw32/13.2.0/../../../../x86_64-w64-mingw32/lib/../lib/libmsvcrt.a(libmsvcrt_defs00298.o)
 .data          0x000000033750b2e0        0x0 C:/Users/DuyThanh/mingw64/bin/../lib/gcc/x86_64-w64-mingw32/13.2.0/../../../../x86_64-w64-mingw32/lib/../lib/libmsvcrt.a(libmsvcrt_defs00314.o)
 .data          0x000000033750b2e0        0x0 C:/Users/DuyThanh/mingw64/bin/../lib/gcc/x86_64-w64-mingw32/13.2.0/../../../../x86_64-w64-mingw32/lib/../lib/libmsvcrt.a(libmsvcrt_defs00337.o)
 .data          0x000000033750b2e0        0x0 C:/Users/DuyThanh/mingw64/bin/../lib/gcc/x86_64-w64-mingw32/13.2.0/../../../../x86_64-w64-mingw32/lib/../lib/libmsvcrt.a(libmsvcrt_defs00342.o)
 .data          0x000000033750b2e0        0x0 C:/Users/DuyThanh/mingw64/bin/../lib/gcc/x86_64-w64-mingw32/13.2.0/../../../../x86_64-w64-mingw32/lib/../lib/libmsvcrt.a(libmsvcrt_defs00445.o)
 .data          0x000000033750b2e0        0x0 C:/Users/DuyThanh/mingw64/bin/../lib/gcc/x86_64-w64-mingw32/13.2.0/../../../../x86_64-w64-mingw32/lib/../lib/libmsvcrt.a(libmsvcrt_defs00446.o)
 .data          0x000000033750b2e0        0x0 C:/Users/DuyThanh/mingw64/bin/../lib/gcc/x86_64-w64-mingw32/13.2.0/../../../../x86_64-w64-mingw32/lib/../lib/libmsvcrt.a(libmsvcrt_defs00607.o)
 .data          0x000000033750b2e0        0x0 C:/Users/DuyThanh/mingw64/bin/../lib/gcc/x86_64-w64-mingw32/13.2.0/../../../../x86_64-w64-mingw32/lib/../lib/libmsvcrt.a(libmsvcrt_defs00624.o)
 .data          0x000000033750b2e0        0x0 C:/Users/DuyThanh/mingw64/bin/../lib/gcc/x86_64-w64-mingw32/13.2.0/../../../../x86_64-w64-mingw32/lib/../lib/libmsvcrt.a(libmsvcrt_defs00629.o)
 .data          0x000000033750b2e0        0x0 C:/Users/DuyThanh/mingw64/bin/../lib/gcc/x86_64-w64-mingw32/13.2.0/../../../../x86_64-w64-mingw32/lib/../lib/libmsvcrt.a(libmsvcrt_defs00683.o)
 .data          0x000000033750b2e0        0x0 C:/Users/DuyThanh/mingw64/bin/../lib/gcc/x86_64-w64-mingw32/13.2.0/../../../../x86_64-w64-mingw32/lib/../lib/libmsvcrt.a(libmsvcrt_defs00732.o)
 .data          0x000000033750b2e0        0x0 C:/Users/DuyThanh/mingw64/bin/../lib/gcc/x86_64-w64-mingw32/13.2.0/../../../../x86_64-w64-mingw32/lib/../lib/libmsvcrt.a(libmsvcrt_defs00741.o)
 .data          0x000000033750b2e0        0x0 C:/Users/DuyThanh/mingw64/bin/../lib/gcc/x86_64-w64-mingw32/13.2.0/../../../../x86_64-w64-mingw32/lib/../lib/libmsvcrt.a(libmsvcrt_defs00778.o)
 .data          0x000000033750b2e0        0x0 C:/Users/DuyThanh/mingw64/bin/../lib/gcc/x86_64-w64-mingw32/13.2.0/../../../../x86_64-w64-mingw32/lib/../lib/libmsvcrt.a(libmsvcrt_defs00781.o)
 .data          0x000000033750b2e0        0x0 C:/Users/DuyThanh/mingw64/bin/../lib/gcc/x86_64-w64-mingw32/13.2.0/../../../../x86_64-w64-mingw32/lib/../lib/libmsvcrt.a(libmsvcrt_defs00833.o)
 .data          0x000000033750b2e0        0x0 C:/Users/DuyThanh/mingw64/bin/../lib/gcc/x86_64-w64-mingw32/13.2.0/../../../../x86_64-w64-mingw32/lib/../lib/libmsvcrt.a(libmsvcrt_defs00837.o)
 .data          0x000000033750b2e0        0x0 C:/Users/DuyThanh/mingw64/bin/../lib/gcc/x86_64-w64-mingw32/13.2.0/../../../../x86_64-w64-mingw32/lib/../lib/libmsvcrt.a(libmsvcrt_defs01045.o)
 .data          0x000000033750b2e0        0x0 C:/Users/DuyThanh/mingw64/bin/../lib/gcc/x86_64-w64-mingw32/13.2.0/../../../../x86_64-w64-mingw32/lib/../lib/libmsvcrt.a(libmsvcrt_defs01054.o)
 .data          0x000000033750b2e0        0x0 C:/Users/DuyThanh/mingw64/bin/../lib/gcc/x86_64-w64-mingw32/13.2.0/../../../../x86_64-w64-mingw32/lib/../lib/libmsvcrt.a(libmsvcrt_defs01067.o)
 .data          0x000000033750b2e0        0x0 C:/Users/DuyThanh/mingw64/bin/../lib/gcc/x86_64-w64-mingw32/13.2.0/../../../../x86_64-w64-mingw32/lib/../lib/libmsvcrt.a(libmsvcrt_defs01071.o)
 .data          0x000000033750b2e0        0x0 C:/Users/DuyThanh/mingw64/bin/../lib/gcc/x86_64-w64-mingw32/13.2.0/../../../../x86_64-w64-mingw32/lib/../lib/libmsvcrt.a(libmsvcrt_defs01085.o)
 .data          0x000000033750b2e0        0x0 C:/Users/DuyThanh/mingw64/bin/../lib/gcc/x86_64-w64-mingw32/13.2.0/../../../../x86_64-w64-mingw32/lib/../lib/libmsvcrt.a(libmsvcrt_defs01089.o)
 .data          0x000000033750b2e0        0x0 C:/Users/DuyThanh/mingw64/bin/../lib/gcc/x86_64-w64-mingw32/13.2.0/../../../../x86_64-w64-mingw32/lib/../lib/libmsvcrt.a(libmsvcrt_defs01092.o)
 .data          0x000000033750b2e0        0x0 C:/Users/DuyThanh/mingw64/bin/../lib/gcc/x86_64-w64-mingw32/13.2.0/../../../../x86_64-w64-mingw32/lib/../lib/libmsvcrt.a(libmsvcrt_defs01093.o)
 .data          0x000000033750b2e0        0x0 C:/Users/DuyThanh/mingw64/bin/../lib/gcc/x86_64-w64-mingw32/13.2.0/../../../../x86_64-w64-mingw32/lib/../lib/libmsvcrt.a(libmsvcrt_defs01095.o)
 .data          0x000000033750b2e0        0x0 C:/Users/DuyThanh/mingw64/bin/../lib/gcc/x86_64-w64-mingw32/13.2.0/../../../../x86_64-w64-mingw32/lib/../lib/libmsvcrt.a(libmsvcrt_defs01102.o)
 .data          0x000000033750b2e0        0x0 C:/Users/DuyThanh/mingw64/bin/../lib/gcc/x86_64-w64-mingw32/13.2.0/../../../../x86_64-w64-mingw32/lib/../lib/libmsvcrt.a(libmsvcrt_defs01107.o)
 .data          0x000000033750b2e0        0x0 C:/Users/DuyThanh/mingw64/bin/../lib/gcc/x86_64-w64-mingw32/13.2.0/../../../../x86_64-w64-mingw32/lib/../lib/libmsvcrt.a(libmsvcrt_defs01108.o)
 .data          0x000000033750b2e0        0x0 C:/Users/DuyThanh/mingw64/bin/../lib/gcc/x86_64-w64-mingw32/13.2.0/../../../../x86_64-w64-mingw32/lib/../lib/libmsvcrt.a(libmsvcrt_defs01111.o)
 .data          0x000000033750b2e0        0x0 C:/Users/DuyThanh/mingw64/bin/../lib/gcc/x86_64-w64-mingw32/13.2.0/../../../../x86_64-w64-mingw32/lib/../lib/libmsvcrt.a(libmsvcrt_defs01112.o)
 .data          0x000000033750b2e0        0x0 C:/Users/DuyThanh/mingw64/bin/../lib/gcc/x86_64-w64-mingw32/13.2.0/../../../../x86_64-w64-mingw32/lib/../lib/libmsvcrt.a(libmsvcrt_defs01121.o)
 .data          0x000000033750b2e0        0x0 C:/Users/DuyThanh/mingw64/bin/../lib/gcc/x86_64-w64-mingw32/13.2.0/../../../../x86_64-w64-mingw32/lib/../lib/libmsvcrt.a(libmsvcrt_defs01122.o)
 .data          0x000000033750b2e0        0x0 C:/Users/DuyThanh/mingw64/bin/../lib/gcc/x86_64-w64-mingw32/13.2.0/../../../../x86_64-w64-mingw32/lib/../lib/libmsvcrt.a(libmsvcrt_defs01125.o)
 .data          0x000000033750b2e0        0x0 C:/Users/DuyThanh/mingw64/bin/../lib/gcc/x86_64-w64-mingw32/13.2.0/../../../../x86_64-w64-mingw32/lib/../lib/libmsvcrt.a(libmsvcrt_defs01129.o)
 .data          0x000000033750b2e0        0x0 C:/Users/DuyThanh/mingw64/bin/../lib/gcc/x86_64-w64-mingw32/13.2.0/../../../../x86_64-w64-mingw32/lib/../lib/libmsvcrt.a(libmsvcrt_defs01131.o)
 .data          0x000000033750b2e0        0x0 C:/Users/DuyThanh/mingw64/bin/../lib/gcc/x86_64-w64-mingw32/13.2.0/../../../../x86_64-w64-mingw32/lib/../lib/libmsvcrt.a(libmsvcrt_defs01138.o)
 .data          0x000000033750b2e0        0x0 C:/Users/DuyThanh/mingw64/bin/../lib/gcc/x86_64-w64-mingw32/13.2.0/../../../../x86_64-w64-mingw32/lib/../lib/libmsvcrt.a(libmsvcrt_defs01139.o)
 .data          0x000000033750b2e0        0x0 C:/Users/DuyThanh/mingw64/bin/../lib/gcc/x86_64-w64-mingw32/13.2.0/../../../../x86_64-w64-mingw32/lib/../lib/libmsvcrt.a(libmsvcrt_defs01145.o)
 .data          0x000000033750b2e0        0x0 C:/Users/DuyThanh/mingw64/bin/../lib/gcc/x86_64-w64-mingw32/13.2.0/../../../../x86_64-w64-mingw32/lib/../lib/libmsvcrt.a(libmsvcrt_defs01147.o)
 .data          0x000000033750b2e0        0x0 C:/Users/DuyThanh/mingw64/bin/../lib/gcc/x86_64-w64-mingw32/13.2.0/../../../../x86_64-w64-mingw32/lib/../lib/libmsvcrt.a(libmsvcrt_defs01162.o)
 .data          0x000000033750b2e0        0x0 C:/Users/DuyThanh/mingw64/bin/../lib/gcc/x86_64-w64-mingw32/13.2.0/../../../../x86_64-w64-mingw32/lib/../lib/libmsvcrt.a(libmsvcrt_defs01166.o)
 .data          0x000000033750b2e0        0x0 C:/Users/DuyThanh/mingw64/bin/../lib/gcc/x86_64-w64-mingw32/13.2.0/../../../../x86_64-w64-mingw32/lib/../lib/libmsvcrt.a(libmsvcrt_defs01173.o)
 .data          0x000000033750b2e0        0x0 C:/Users/DuyThanh/mingw64/bin/../lib/gcc/x86_64-w64-mingw32/13.2.0/../../../../x86_64-w64-mingw32/lib/../lib/libmsvcrt.a(libmsvcrt_defs01181.o)
 .data          0x000000033750b2e0        0x0 C:/Users/DuyThanh/mingw64/bin/../lib/gcc/x86_64-w64-mingw32/13.2.0/../../../../x86_64-w64-mingw32/lib/../lib/libmsvcrt.a(libmsvcrt_defs01182.o)
 .data          0x000000033750b2e0        0x0 C:/Users/DuyThanh/mingw64/bin/../lib/gcc/x86_64-w64-mingw32/13.2.0/../../../../x86_64-w64-mingw32/lib/../lib/libmsvcrt.a(libmsvcrt_defs01183.o)
 .data          0x000000033750b2e0        0x0 C:/Users/DuyThanh/mingw64/bin/../lib/gcc/x86_64-w64-mingw32/13.2.0/../../../../x86_64-w64-mingw32/lib/../lib/libmsvcrt.a(libmsvcrt_defs01184.o)
 .data          0x000000033750b2e0        0x0 C:/Users/DuyThanh/mingw64/bin/../lib/gcc/x86_64-w64-mingw32/13.2.0/../../../../x86_64-w64-mingw32/lib/../lib/libmsvcrt.a(libmsvcrt_defs01185.o)
 .data          0x000000033750b2e0        0x0 C:/Users/DuyThanh/mingw64/bin/../lib/gcc/x86_64-w64-mingw32/13.2.0/../../../../x86_64-w64-mingw32/lib/../lib/libmsvcrt.a(libmsvcrt_defs01203.o)
 .data          0x000000033750b2e0        0x0 C:/Users/DuyThanh/mingw64/bin/../lib/gcc/x86_64-w64-mingw32/13.2.0/../../../../x86_64-w64-mingw32/lib/../lib/libmsvcrt.a(libmsvcrt_defs01206.o)
 .data          0x000000033750b2e0        0x0 C:/Users/DuyThanh/mingw64/bin/../lib/gcc/x86_64-w64-mingw32/13.2.0/../../../../x86_64-w64-mingw32/lib/../lib/libmsvcrt.a(libmsvcrt_defs01212.o)
 .data          0x000000033750b2e0        0x0 C:/Users/DuyThanh/mingw64/bin/../lib/gcc/x86_64-w64-mingw32/13.2.0/../../../../x86_64-w64-mingw32/lib/../lib/libmsvcrt.a(libmsvcrt_defs01228.o)
 .data          0x000000033750b2e0        0x0 C:/Users/DuyThanh/mingw64/bin/../lib/gcc/x86_64-w64-mingw32/13.2.0/../../../../x86_64-w64-mingw32/lib/../lib/libmsvcrt.a(libmsvcrt_defs01229.o)
 .data          0x000000033750b2e0        0x0 C:/Users/DuyThanh/mingw64/bin/../lib/gcc/x86_64-w64-mingw32/13.2.0/../../../../x86_64-w64-mingw32/lib/../lib/libmsvcrt.a(libmsvcrt_defs01231.o)
 .data          0x000000033750b2e0        0x0 C:/Users/DuyThanh/mingw64/bin/../lib/gcc/x86_64-w64-mingw32/13.2.0/../../../../x86_64-w64-mingw32/lib/../lib/libmsvcrt.a(libmsvcrt_defs01233.o)
 .data          0x000000033750b2e0        0x0 C:/Users/DuyThanh/mingw64/bin/../lib/gcc/x86_64-w64-mingw32/13.2.0/../../../../x86_64-w64-mingw32/lib/../lib/libmsvcrt.a(libmsvcrt_defs01234.o)
 .data          0x000000033750b2e0        0x0 C:/Users/DuyThanh/mingw64/bin/../lib/gcc/x86_64-w64-mingw32/13.2.0/../../../../x86_64-w64-mingw32/lib/../lib/libmsvcrt.a(libmsvcrt_defs01236.o)
 .data          0x000000033750b2e0        0x0 C:/Users/DuyThanh/mingw64/bin/../lib/gcc/x86_64-w64-mingw32/13.2.0/../../../../x86_64-w64-mingw32/lib/../lib/libmsvcrt.a(libmsvcrt_defs01239.o)
 .data          0x000000033750b2e0        0x0 C:/Users/DuyThanh/mingw64/bin/../lib/gcc/x86_64-w64-mingw32/13.2.0/../../../../x86_64-w64-mingw32/lib/../lib/libmsvcrt.a(libmsvcrt_defs01240.o)
 .data          0x000000033750b2e0        0x0 C:/Users/DuyThanh/mingw64/bin/../lib/gcc/x86_64-w64-mingw32/13.2.0/../../../../x86_64-w64-mingw32/lib/../lib/libmsvcrt.a(libmsvcrt_defs01243.o)
 .data          0x000000033750b2e0        0x0 C:/Users/DuyThanh/mingw64/bin/../lib/gcc/x86_64-w64-mingw32/13.2.0/../../../../x86_64-w64-mingw32/lib/../lib/libmsvcrt.a(libmsvcrt_defs01244.o)
 .data          0x000000033750b2e0        0x0 C:/Users/DuyThanh/mingw64/bin/../lib/gcc/x86_64-w64-mingw32/13.2.0/../../../../x86_64-w64-mingw32/lib/../lib/libmsvcrt.a(libmsvcrt_defs01245.o)
 .data          0x000000033750b2e0        0x0 C:/Users/DuyThanh/mingw64/bin/../lib/gcc/x86_64-w64-mingw32/13.2.0/../../../../x86_64-w64-mingw32/lib/../lib/libmsvcrt.a(libmsvcrt_defs01249.o)
 .data          0x000000033750b2e0        0x0 C:/Users/DuyThanh/mingw64/bin/../lib/gcc/x86_64-w64-mingw32/13.2.0/../../../../x86_64-w64-mingw32/lib/../lib/libmsvcrt.a(libmsvcrt_defs01250.o)
 .data          0x000000033750b2e0        0x0 C:/Users/DuyThanh/mingw64/bin/../lib/gcc/x86_64-w64-mingw32/13.2.0/../../../../x86_64-w64-mingw32/lib/../lib/libmsvcrt.a(libmsvcrt_defs01259.o)
 .data          0x000000033750b2e0        0x0 C:/Users/DuyThanh/mingw64/bin/../lib/gcc/x86_64-w64-mingw32/13.2.0/../../../../x86_64-w64-mingw32/lib/../lib/libmsvcrt.a(libmsvcrt_defs01267.o)
 .data          0x000000033750b2e0        0x0 C:/Users/DuyThanh/mingw64/bin/../lib/gcc/x86_64-w64-mingw32/13.2.0/../../../../x86_64-w64-mingw32/lib/../lib/libmsvcrt.a(libmsvcrt_defs01273.o)
 .data          0x000000033750b2e0        0x0 C:/Users/DuyThanh/mingw64/bin/../lib/gcc/x86_64-w64-mingw32/13.2.0/../../../../x86_64-w64-mingw32/lib/../lib/libmsvcrt.a(libmsvcrt_defs01274.o)
 .data          0x000000033750b2e0        0x0 C:/Users/DuyThanh/mingw64/bin/../lib/gcc/x86_64-w64-mingw32/13.2.0/../../../../x86_64-w64-mingw32/lib/../lib/libmsvcrt.a(libmsvcrt_defs01300.o)
 .data          0x000000033750b2e0        0x0 C:/Users/DuyThanh/mingw64/bin/../lib/gcc/x86_64-w64-mingw32/13.2.0/../../../../x86_64-w64-mingw32/lib/../lib/libmsvcrt.a(libmsvcrt_defh.o)
 .data          0x000000033750b2e0        0x0 C:/Users/DuyThanh/mingw64/bin/../lib/gcc/x86_64-w64-mingw32/13.2.0/../../../../x86_64-w64-mingw32/lib/../lib/libmsvcrt.a(libmsvcrt_deft.o)
 .data          0x000000033750b2e0        0x0 C:/Users/DuyThanh/mingw64/bin/../lib/gcc/x86_64-w64-mingw32/13.2.0/../../../../x86_64-w64-mingw32/lib/../lib/libkernel32.a(libkernel32s01563.o)
 .data          0x000000033750b2e0        0x0 C:/Users/DuyThanh/mingw64/bin/../lib/gcc/x86_64-w64-mingw32/13.2.0/../../../../x86_64-w64-mingw32/lib/../lib/libkernel32.a(libkernel32s01562.o)
 .data          0x000000033750b2e0        0x0 C:/Users/DuyThanh/mingw64/bin/../lib/gcc/x86_64-w64-mingw32/13.2.0/../../../../x86_64-w64-mingw32/lib/../lib/libkernel32.a(libkernel32s01543.o)
 .data          0x000000033750b2e0        0x0 C:/Users/DuyThanh/mingw64/bin/../lib/gcc/x86_64-w64-mingw32/13.2.0/../../../../x86_64-w64-mingw32/lib/../lib/libkernel32.a(libkernel32s01500.o)
 .data          0x000000033750b2e0        0x0 C:/Users/DuyThanh/mingw64/bin/../lib/gcc/x86_64-w64-mingw32/13.2.0/../../../../x86_64-w64-mingw32/lib/../lib/libkernel32.a(libkernel32s01499.o)
 .data          0x000000033750b2e0        0x0 C:/Users/DuyThanh/mingw64/bin/../lib/gcc/x86_64-w64-mingw32/13.2.0/../../../../x86_64-w64-mingw32/lib/../lib/libkernel32.a(libkernel32s01490.o)
 .data          0x000000033750b2e0        0x0 C:/Users/DuyThanh/mingw64/bin/../lib/gcc/x86_64-w64-mingw32/13.2.0/../../../../x86_64-w64-mingw32/lib/../lib/libkernel32.a(libkernel32s01488.o)
 .data          0x000000033750b2e0        0x0 C:/Users/DuyThanh/mingw64/bin/../lib/gcc/x86_64-w64-mingw32/13.2.0/../../../../x86_64-w64-mingw32/lib/../lib/libkernel32.a(libkernel32s01458.o)
 .data          0x000000033750b2e0        0x0 C:/Users/DuyThanh/mingw64/bin/../lib/gcc/x86_64-w64-mingw32/13.2.0/../../../../x86_64-w64-mingw32/lib/../lib/libkernel32.a(libkernel32s01457.o)
 .data          0x000000033750b2e0        0x0 C:/Users/DuyThanh/mingw64/bin/../lib/gcc/x86_64-w64-mingw32/13.2.0/../../../../x86_64-w64-mingw32/lib/../lib/libkernel32.a(libkernel32s01456.o)
 .data          0x000000033750b2e0        0x0 C:/Users/DuyThanh/mingw64/bin/../lib/gcc/x86_64-w64-mingw32/13.2.0/../../../../x86_64-w64-mingw32/lib/../lib/libkernel32.a(libkernel32s01448.o)
 .data          0x000000033750b2e0        0x0 C:/Users/DuyThanh/mingw64/bin/../lib/gcc/x86_64-w64-mingw32/13.2.0/../../../../x86_64-w64-mingw32/lib/../lib/libkernel32.a(libkernel32s01441.o)
 .data          0x000000033750b2e0        0x0 C:/Users/DuyThanh/mingw64/bin/../lib/gcc/x86_64-w64-mingw32/13.2.0/../../../../x86_64-w64-mingw32/lib/../lib/libkernel32.a(libkernel32s01417.o)
 .data          0x000000033750b2e0        0x0 C:/Users/DuyThanh/mingw64/bin/../lib/gcc/x86_64-w64-mingw32/13.2.0/../../../../x86_64-w64-mingw32/lib/../lib/libkernel32.a(libkernel32s01406.o)
 .data          0x000000033750b2e0        0x0 C:/Users/DuyThanh/mingw64/bin/../lib/gcc/x86_64-w64-mingw32/13.2.0/../../../../x86_64-w64-mingw32/lib/../lib/libkernel32.a(libkernel32s01320.o)
 .data          0x000000033750b2e0        0x0 C:/Users/DuyThanh/mingw64/bin/../lib/gcc/x86_64-w64-mingw32/13.2.0/../../../../x86_64-w64-mingw32/lib/../lib/libkernel32.a(libkernel32s01316.o)
 .data          0x000000033750b2e0        0x0 C:/Users/DuyThanh/mingw64/bin/../lib/gcc/x86_64-w64-mingw32/13.2.0/../../../../x86_64-w64-mingw32/lib/../lib/libkernel32.a(libkernel32s01297.o)
 .data          0x000000033750b2e0        0x0 C:/Users/DuyThanh/mingw64/bin/../lib/gcc/x86_64-w64-mingw32/13.2.0/../../../../x86_64-w64-mingw32/lib/../lib/libkernel32.a(libkernel32s01290.o)
 .data          0x000000033750b2e0        0x0 C:/Users/DuyThanh/mingw64/bin/../lib/gcc/x86_64-w64-mingw32/13.2.0/../../../../x86_64-w64-mingw32/lib/../lib/libkernel32.a(libkernel32s01283.o)
 .data          0x000000033750b2e0        0x0 C:/Users/DuyThanh/mingw64/bin/../lib/gcc/x86_64-w64-mingw32/13.2.0/../../../../x86_64-w64-mingw32/lib/../lib/libkernel32.a(libkernel32s01274.o)
 .data          0x000000033750b2e0        0x0 C:/Users/DuyThanh/mingw64/bin/../lib/gcc/x86_64-w64-mingw32/13.2.0/../../../../x86_64-w64-mingw32/lib/../lib/libkernel32.a(libkernel32s01258.o)
 .data          0x000000033750b2e0        0x0 C:/Users/DuyThanh/mingw64/bin/../lib/gcc/x86_64-w64-mingw32/13.2.0/../../../../x86_64-w64-mingw32/lib/../lib/libkernel32.a(libkernel32s01167.o)
 .data          0x000000033750b2e0        0x0 C:/Users/DuyThanh/mingw64/bin/../lib/gcc/x86_64-w64-mingw32/13.2.0/../../../../x86_64-w64-mingw32/lib/../lib/libkernel32.a(libkernel32s01164.o)
 .data          0x000000033750b2e0        0x0 C:/Users/DuyThanh/mingw64/bin/../lib/gcc/x86_64-w64-mingw32/13.2.0/../../../../x86_64-w64-mingw32/lib/../lib/libkernel32.a(libkernel32s01128.o)
 .data          0x000000033750b2e0        0x0 C:/Users/DuyThanh/mingw64/bin/../lib/gcc/x86_64-w64-mingw32/13.2.0/../../../../x86_64-w64-mingw32/lib/../lib/libkernel32.a(libkernel32s01076.o)
 .data          0x000000033750b2e0        0x0 C:/Users/DuyThanh/mingw64/bin/../lib/gcc/x86_64-w64-mingw32/13.2.0/../../../../x86_64-w64-mingw32/lib/../lib/libkernel32.a(libkernel32s01075.o)
 .data          0x000000033750b2e0        0x0 C:/Users/DuyThanh/mingw64/bin/../lib/gcc/x86_64-w64-mingw32/13.2.0/../../../../x86_64-w64-mingw32/lib/../lib/libkernel32.a(libkernel32s01033.o)
 .data          0x000000033750b2e0        0x0 C:/Users/DuyThanh/mingw64/bin/../lib/gcc/x86_64-w64-mingw32/13.2.0/../../../../x86_64-w64-mingw32/lib/../lib/libkernel32.a(libkernel32s01016.o)
 .data          0x000000033750b2e0        0x0 C:/Users/DuyThanh/mingw64/bin/../lib/gcc/x86_64-w64-mingw32/13.2.0/../../../../x86_64-w64-mingw32/lib/../lib/libkernel32.a(libkernel32s01012.o)
 .data          0x000000033750b2e0        0x0 C:/Users/DuyThanh/mingw64/bin/../lib/gcc/x86_64-w64-mingw32/13.2.0/../../../../x86_64-w64-mingw32/lib/../lib/libkernel32.a(libkernel32s01011.o)
 .data          0x000000033750b2e0        0x0 C:/Users/DuyThanh/mingw64/bin/../lib/gcc/x86_64-w64-mingw32/13.2.0/../../../../x86_64-w64-mingw32/lib/../lib/libkernel32.a(libkernel32s00999.o)
 .data          0x000000033750b2e0        0x0 C:/Users/DuyThanh/mingw64/bin/../lib/gcc/x86_64-w64-mingw32/13.2.0/../../../../x86_64-w64-mingw32/lib/../lib/libkernel32.a(libkernel32s00988.o)
 .data          0x000000033750b2e0        0x0 C:/Users/DuyThanh/mingw64/bin/../lib/gcc/x86_64-w64-mingw32/13.2.0/../../../../x86_64-w64-mingw32/lib/../lib/libkernel32.a(libkernel32s00985.o)
 .data          0x000000033750b2e0        0x0 C:/Users/DuyThanh/mingw64/bin/../lib/gcc/x86_64-w64-mingw32/13.2.0/../../../../x86_64-w64-mingw32/lib/../lib/libkernel32.a(libkernel32s00981.o)
 .data          0x000000033750b2e0        0x0 C:/Users/DuyThanh/mingw64/bin/../lib/gcc/x86_64-w64-mingw32/13.2.0/../../../../x86_64-w64-mingw32/lib/../lib/libkernel32.a(libkernel32s00916.o)
 .data          0x000000033750b2e0        0x0 C:/Users/DuyThanh/mingw64/bin/../lib/gcc/x86_64-w64-mingw32/13.2.0/../../../../x86_64-w64-mingw32/lib/../lib/libkernel32.a(libkernel32s00889.o)
 .data          0x000000033750b2e0        0x0 C:/Users/DuyThanh/mingw64/bin/../lib/gcc/x86_64-w64-mingw32/13.2.0/../../../../x86_64-w64-mingw32/lib/../lib/libkernel32.a(libkernel32s00876.o)
 .data          0x000000033750b2e0        0x0 C:/Users/DuyThanh/mingw64/bin/../lib/gcc/x86_64-w64-mingw32/13.2.0/../../../../x86_64-w64-mingw32/lib/../lib/libkernel32.a(libkernel32s00872.o)
 .data          0x000000033750b2e0        0x0 C:/Users/DuyThanh/mingw64/bin/../lib/gcc/x86_64-w64-mingw32/13.2.0/../../../../x86_64-w64-mingw32/lib/../lib/libkernel32.a(libkernel32s00870.o)
 .data          0x000000033750b2e0        0x0 C:/Users/DuyThanh/mingw64/bin/../lib/gcc/x86_64-w64-mingw32/13.2.0/../../../../x86_64-w64-mingw32/lib/../lib/libkernel32.a(libkernel32s00866.o)
 .data          0x000000033750b2e0        0x0 C:/Users/DuyThanh/mingw64/bin/../lib/gcc/x86_64-w64-mingw32/13.2.0/../../../../x86_64-w64-mingw32/lib/../lib/libkernel32.a(libkernel32s00864.o)
 .data          0x000000033750b2e0        0x0 C:/Users/DuyThanh/mingw64/bin/../lib/gcc/x86_64-w64-mingw32/13.2.0/../../../../x86_64-w64-mingw32/lib/../lib/libkernel32.a(libkernel32s00862.o)
 .data          0x000000033750b2e0        0x0 C:/Users/DuyThanh/mingw64/bin/../lib/gcc/x86_64-w64-mingw32/13.2.0/../../../../x86_64-w64-mingw32/lib/../lib/libkernel32.a(libkernel32s00861.o)
 .data          0x000000033750b2e0        0x0 C:/Users/DuyThanh/mingw64/bin/../lib/gcc/x86_64-w64-mingw32/13.2.0/../../../../x86_64-w64-mingw32/lib/../lib/libkernel32.a(libkernel32s00860.o)
 .data          0x000000033750b2e0        0x0 C:/Users/DuyThanh/mingw64/bin/../lib/gcc/x86_64-w64-mingw32/13.2.0/../../../../x86_64-w64-mingw32/lib/../lib/libkernel32.a(libkernel32s00796.o)
 .data          0x000000033750b2e0        0x0 C:/Users/DuyThanh/mingw64/bin/../lib/gcc/x86_64-w64-mingw32/13.2.0/../../../../x86_64-w64-mingw32/lib/../lib/libkernel32.a(libkernel32s00779.o)
 .data          0x000000033750b2e0        0x0 C:/Users/DuyThanh/mingw64/bin/../lib/gcc/x86_64-w64-mingw32/13.2.0/../../../../x86_64-w64-mingw32/lib/../lib/libkernel32.a(libkernel32s00778.o)
 .data          0x000000033750b2e0        0x0 C:/Users/DuyThanh/mingw64/bin/../lib/gcc/x86_64-w64-mingw32/13.2.0/../../../../x86_64-w64-mingw32/lib/../lib/libkernel32.a(libkernel32s00766.o)
 .data          0x000000033750b2e0        0x0 C:/Users/DuyThanh/mingw64/bin/../lib/gcc/x86_64-w64-mingw32/13.2.0/../../../../x86_64-w64-mingw32/lib/../lib/libkernel32.a(libkernel32s00764.o)
 .data          0x000000033750b2e0        0x0 C:/Users/DuyThanh/mingw64/bin/../lib/gcc/x86_64-w64-mingw32/13.2.0/../../../../x86_64-w64-mingw32/lib/../lib/libkernel32.a(libkernel32s00760.o)
 .data          0x000000033750b2e0        0x0 C:/Users/DuyThanh/mingw64/bin/../lib/gcc/x86_64-w64-mingw32/13.2.0/../../../../x86_64-w64-mingw32/lib/../lib/libkernel32.a(libkernel32s00743.o)
 .data          0x000000033750b2e0        0x0 C:/Users/DuyThanh/mingw64/bin/../lib/gcc/x86_64-w64-mingw32/13.2.0/../../../../x86_64-w64-mingw32/lib/../lib/libkernel32.a(libkernel32s00713.o)
 .data          0x000000033750b2e0        0x0 C:/Users/DuyThanh/mingw64/bin/../lib/gcc/x86_64-w64-mingw32/13.2.0/../../../../x86_64-w64-mingw32/lib/../lib/libkernel32.a(libkernel32s00707.o)
 .data          0x000000033750b2e0        0x0 C:/Users/DuyThanh/mingw64/bin/../lib/gcc/x86_64-w64-mingw32/13.2.0/../../../../x86_64-w64-mingw32/lib/../lib/libkernel32.a(libkernel32s00627.o)
 .data          0x000000033750b2e0        0x0 C:/Users/DuyThanh/mingw64/bin/../lib/gcc/x86_64-w64-mingw32/13.2.0/../../../../x86_64-w64-mingw32/lib/../lib/libkernel32.a(libkernel32s00620.o)
 .data          0x000000033750b2e0        0x0 C:/Users/DuyThanh/mingw64/bin/../lib/gcc/x86_64-w64-mingw32/13.2.0/../../../../x86_64-w64-mingw32/lib/../lib/libkernel32.a(libkernel32s00617.o)
 .data          0x000000033750b2e0        0x0 C:/Users/DuyThanh/mingw64/bin/../lib/gcc/x86_64-w64-mingw32/13.2.0/../../../../x86_64-w64-mingw32/lib/../lib/libkernel32.a(libkernel32s00609.o)
 .data          0x000000033750b2e0        0x0 C:/Users/DuyThanh/mingw64/bin/../lib/gcc/x86_64-w64-mingw32/13.2.0/../../../../x86_64-w64-mingw32/lib/../lib/libkernel32.a(libkernel32s00606.o)
 .data          0x000000033750b2e0        0x0 C:/Users/DuyThanh/mingw64/bin/../lib/gcc/x86_64-w64-mingw32/13.2.0/../../../../x86_64-w64-mingw32/lib/../lib/libkernel32.a(libkernel32s00600.o)
 .data          0x000000033750b2e0        0x0 C:/Users/DuyThanh/mingw64/bin/../lib/gcc/x86_64-w64-mingw32/13.2.0/../../../../x86_64-w64-mingw32/lib/../lib/libkernel32.a(libkernel32s00597.o)
 .data          0x000000033750b2e0        0x0 C:/Users/DuyThanh/mingw64/bin/../lib/gcc/x86_64-w64-mingw32/13.2.0/../../../../x86_64-w64-mingw32/lib/../lib/libkernel32.a(libkernel32s00595.o)
 .data          0x000000033750b2e0        0x0 C:/Users/DuyThanh/mingw64/bin/../lib/gcc/x86_64-w64-mingw32/13.2.0/../../../../x86_64-w64-mingw32/lib/../lib/libkernel32.a(libkernel32s00569.o)
 .data          0x000000033750b2e0        0x0 C:/Users/DuyThanh/mingw64/bin/../lib/gcc/x86_64-w64-mingw32/13.2.0/../../../../x86_64-w64-mingw32/lib/../lib/libkernel32.a(libkernel32s00566.o)
 .data          0x000000033750b2e0        0x0 C:/Users/DuyThanh/mingw64/bin/../lib/gcc/x86_64-w64-mingw32/13.2.0/../../../../x86_64-w64-mingw32/lib/../lib/libkernel32.a(libkernel32s00554.o)
 .data          0x000000033750b2e0        0x0 C:/Users/DuyThanh/mingw64/bin/../lib/gcc/x86_64-w64-mingw32/13.2.0/../../../../x86_64-w64-mingw32/lib/../lib/libkernel32.a(libkernel32s00550.o)
 .data          0x000000033750b2e0        0x0 C:/Users/DuyThanh/mingw64/bin/../lib/gcc/x86_64-w64-mingw32/13.2.0/../../../../x86_64-w64-mingw32/lib/../lib/libkernel32.a(libkernel32s00549.o)
 .data          0x000000033750b2e0        0x0 C:/Users/DuyThanh/mingw64/bin/../lib/gcc/x86_64-w64-mingw32/13.2.0/../../../../x86_64-w64-mingw32/lib/../lib/libkernel32.a(libkernel32s00528.o)
 .data          0x000000033750b2e0        0x0 C:/Users/DuyThanh/mingw64/bin/../lib/gcc/x86_64-w64-mingw32/13.2.0/../../../../x86_64-w64-mingw32/lib/../lib/libkernel32.a(libkernel32s00522.o)
 .data          0x000000033750b2e0        0x0 C:/Users/DuyThanh/mingw64/bin/../lib/gcc/x86_64-w64-mingw32/13.2.0/../../../../x86_64-w64-mingw32/lib/../lib/libkernel32.a(libkernel32s00440.o)
 .data          0x000000033750b2e0        0x0 C:/Users/DuyThanh/mingw64/bin/../lib/gcc/x86_64-w64-mingw32/13.2.0/../../../../x86_64-w64-mingw32/lib/../lib/libkernel32.a(libkernel32s00436.o)
 .data          0x000000033750b2e0        0x0 C:/Users/DuyThanh/mingw64/bin/../lib/gcc/x86_64-w64-mingw32/13.2.0/../../../../x86_64-w64-mingw32/lib/../lib/libkernel32.a(libkernel32s00435.o)
 .data          0x000000033750b2e0        0x0 C:/Users/DuyThanh/mingw64/bin/../lib/gcc/x86_64-w64-mingw32/13.2.0/../../../../x86_64-w64-mingw32/lib/../lib/libkernel32.a(libkernel32s00431.o)
 .data          0x000000033750b2e0        0x0 C:/Users/DuyThanh/mingw64/bin/../lib/gcc/x86_64-w64-mingw32/13.2.0/../../../../x86_64-w64-mingw32/lib/../lib/libkernel32.a(libkernel32s00428.o)
 .data          0x000000033750b2e0        0x0 C:/Users/DuyThanh/mingw64/bin/../lib/gcc/x86_64-w64-mingw32/13.2.0/../../../../x86_64-w64-mingw32/lib/../lib/libkernel32.a(libkernel32s00397.o)
 .data          0x000000033750b2e0        0x0 C:/Users/DuyThanh/mingw64/bin/../lib/gcc/x86_64-w64-mingw32/13.2.0/../../../../x86_64-w64-mingw32/lib/../lib/libkernel32.a(libkernel32s00386.o)
 .data          0x000000033750b2e0        0x0 C:/Users/DuyThanh/mingw64/bin/../lib/gcc/x86_64-w64-mingw32/13.2.0/../../../../x86_64-w64-mingw32/lib/../lib/libkernel32.a(libkernel32s00316.o)
 .data          0x000000033750b2e0        0x0 C:/Users/DuyThanh/mingw64/bin/../lib/gcc/x86_64-w64-mingw32/13.2.0/../../../../x86_64-w64-mingw32/lib/../lib/libkernel32.a(libkernel32s00285.o)
 .data          0x000000033750b2e0        0x0 C:/Users/DuyThanh/mingw64/bin/../lib/gcc/x86_64-w64-mingw32/13.2.0/../../../../x86_64-w64-mingw32/lib/../lib/libkernel32.a(libkernel32s00282.o)
 .data          0x000000033750b2e0        0x0 C:/Users/DuyThanh/mingw64/bin/../lib/gcc/x86_64-w64-mingw32/13.2.0/../../../../x86_64-w64-mingw32/lib/../lib/libkernel32.a(libkernel32s00280.o)
 .data          0x000000033750b2e0        0x0 C:/Users/DuyThanh/mingw64/bin/../lib/gcc/x86_64-w64-mingw32/13.2.0/../../../../x86_64-w64-mingw32/lib/../lib/libkernel32.a(libkernel32s00270.o)
 .data          0x000000033750b2e0        0x0 C:/Users/DuyThanh/mingw64/bin/../lib/gcc/x86_64-w64-mingw32/13.2.0/../../../../x86_64-w64-mingw32/lib/../lib/libkernel32.a(libkernel32s00226.o)
 .data          0x000000033750b2e0        0x0 C:/Users/DuyThanh/mingw64/bin/../lib/gcc/x86_64-w64-mingw32/13.2.0/../../../../x86_64-w64-mingw32/lib/../lib/libkernel32.a(libkernel32s00211.o)
 .data          0x000000033750b2e0        0x0 C:/Users/DuyThanh/mingw64/bin/../lib/gcc/x86_64-w64-mingw32/13.2.0/../../../../x86_64-w64-mingw32/lib/../lib/libkernel32.a(libkernel32s00208.o)
 .data          0x000000033750b2e0        0x0 C:/Users/DuyThanh/mingw64/bin/../lib/gcc/x86_64-w64-mingw32/13.2.0/../../../../x86_64-w64-mingw32/lib/../lib/libkernel32.a(libkernel32s00203.o)
 .data          0x000000033750b2e0        0x0 C:/Users/DuyThanh/mingw64/bin/../lib/gcc/x86_64-w64-mingw32/13.2.0/../../../../x86_64-w64-mingw32/lib/../lib/libkernel32.a(libkernel32s00140.o)
 .data          0x000000033750b2e0        0x0 C:/Users/DuyThanh/mingw64/bin/../lib/gcc/x86_64-w64-mingw32/13.2.0/../../../../x86_64-w64-mingw32/lib/../lib/libkernel32.a(libkernel32s00035.o)
 .data          0x000000033750b2e0        0x0 C:/Users/DuyThanh/mingw64/bin/../lib/gcc/x86_64-w64-mingw32/13.2.0/../../../../x86_64-w64-mingw32/lib/../lib/libkernel32.a(libkernel32h.o)
 .data          0x000000033750b2e0        0x0 C:/Users/DuyThanh/mingw64/bin/../lib/gcc/x86_64-w64-mingw32/13.2.0/../../../../x86_64-w64-mingw32/lib/../lib/libkernel32.a(libkernel32t.o)
 .data          0x000000033750b2e0        0x0 C:/Users/DuyThanh/mingw64/bin/../lib/gcc/x86_64-w64-mingw32/13.2.0/crtend.o
 *(.data2)
 *(SORT_BY_NAME(.data$*))
 *(.jcr)
                0x000000033750b2e0                __data_end__ = .
 *(.data_cygwin_nocopy)

.rdata          0x000000033750c000    0x1c800
 *(.rdata)
 .rdata         0x000000033750c000      0x160 C:\Users\DuyThanh\AppData\Local\Temp\ccRJjOEn.o
                0x000000033750c100                b64_char
 .rdata         0x000000033750c160     0xbe80 C:\Users\DuyThanh\AppData\Local\Temp\cclGozRv.o
 .rdata         0x0000000337517fe0     0xfb80 C:\Users\DuyThanh\AppData\Local\Temp\ccsXH6CC.o
                0x00000003375278c8                sqlite3_version
 .rdata         0x0000000337527b60       0x60 C:/Users/DuyThanh/mingw64/bin/../lib/gcc/x86_64-w64-mingw32/13.2.0/../../../../x86_64-w64-mingw32/lib/../lib/libmingw32.a(lib64_libmingw32_a-tlssup.o)
                0x0000000337527b60                __dyn_tls_init_callback
                0x0000000337527b80                _tls_used
 .rdata         0x0000000337527bc0      0x160 C:/Users/DuyThanh/mingw64/bin/../lib/gcc/x86_64-w64-mingw32/13.2.0/../../../../x86_64-w64-mingw32/lib/../lib/libmingw32.a(lib64_libmingw32_a-pseudo-reloc.o)
 .rdata         0x0000000337527d20       0x20 C:/Users/DuyThanh/mingw64/bin/../lib/gcc/x86_64-w64-mingw32/13.2.0/../../../../x86_64-w64-mingw32/lib/../lib/libmingwex.a(lib64_libmingwex_a-strtodnrp.o)
 .rdata         0x0000000337527d40      0x280 C:/Users/DuyThanh/mingw64/bin/../lib/gcc/x86_64-w64-mingw32/13.2.0/../../../../x86_64-w64-mingw32/lib/../lib/libmingwex.a(lib64_libmingwex_a-mingw_vfscanf.o)
 .rdata         0x0000000337527fc0      0x180 C:/Users/DuyThanh/mingw64/bin/../lib/gcc/x86_64-w64-mingw32/13.2.0/../../../../x86_64-w64-mingw32/lib/../lib/libmingwex.a(lib64_libmingwex_a-strtodg.o)
 .rdata         0x0000000337528140       0x20 C:/Users/DuyThanh/mingw64/bin/../lib/gcc/x86_64-w64-mingw32/13.2.0/../../../../x86_64-w64-mingw32/lib/../lib/libmingwex.a(lib64_libmingwex_a-strtof.o)
 .rdata         0x0000000337528160       0x20 C:/Users/DuyThanh/mingw64/bin/../lib/gcc/x86_64-w64-mingw32/13.2.0/../../../../x86_64-w64-mingw32/lib/../lib/libmingwex.a(lib64_libmingwex_a-strtopx.o)
 .rdata         0x0000000337528180      0x190 C:/Users/DuyThanh/mingw64/bin/../lib/gcc/x86_64-w64-mingw32/13.2.0/../../../../x86_64-w64-mingw32/lib/../lib/libmingwex.a(lib64_libmingwex_a-mingw_pformat.o)
 .rdata         0x0000000337528310       0x90 C:/Users/DuyThanh/mingw64/bin/../lib/gcc/x86_64-w64-mingw32/13.2.0/../../../../x86_64-w64-mingw32/lib/../lib/libmingwex.a(lib64_libmingwex_a-gdtoa.o)
 .rdata         0x00000003375283a0       0x20 C:/Users/DuyThanh/mingw64/bin/../lib/gcc/x86_64-w64-mingw32/13.2.0/../../../../x86_64-w64-mingw32/lib/../lib/libmingwex.a(lib64_libmingwex_a-hd_init.o)
 .rdata         0x00000003375283c0      0x160 C:/Users/DuyThanh/mingw64/bin/../lib/gcc/x86_64-w64-mingw32/13.2.0/../../../../x86_64-w64-mingw32/lib/../lib/libmingwex.a(lib64_libmingwex_a-misc.o)
                0x00000003375283e0                __tens_D2A
                0x00000003375284a0                __tinytens_D2A
                0x00000003375284e0                __bigtens_D2A
 *(SORT_BY_NAME(.rdata$*))
 .rdata$.refptr._CRT_MT
                0x0000000337528520       0x10 C:/Users/DuyThanh/mingw64/bin/../lib/gcc/x86_64-w64-mingw32/13.2.0/../../../../x86_64-w64-mingw32/lib/../lib/libmingw32.a(lib64_libmingw32_a-tlssup.o)
                0x0000000337528520                .refptr._CRT_MT
 .rdata$.refptr.__CTOR_LIST__
                0x0000000337528530       0x10 C:/Users/DuyThanh/mingw64/bin/../lib/gcc/x86_64-w64-mingw32/13.2.0/../../../../x86_64-w64-mingw32/lib/../lib/libmingw32.a(lib64_libmingw32_a-gccmain.o)
                0x0000000337528530                .refptr.__CTOR_LIST__
 .rdata$.refptr.__RUNTIME_PSEUDO_RELOC_LIST_END__
                0x0000000337528540       0x10 C:/Users/DuyThanh/mingw64/bin/../lib/gcc/x86_64-w64-mingw32/13.2.0/../../../../x86_64-w64-mingw32/lib/../lib/libmingw32.a(lib64_libmingw32_a-pseudo-reloc.o)
                0x0000000337528540                .refptr.__RUNTIME_PSEUDO_RELOC_LIST_END__
 .rdata$.refptr.__RUNTIME_PSEUDO_RELOC_LIST__
                0x0000000337528550       0x10 C:/Users/DuyThanh/mingw64/bin/../lib/gcc/x86_64-w64-mingw32/13.2.0/../../../../x86_64-w64-mingw32/lib/../lib/libmingw32.a(lib64_libmingw32_a-pseudo-reloc.o)
                0x0000000337528550                .refptr.__RUNTIME_PSEUDO_RELOC_LIST__
 .rdata$.refptr.__bigtens_D2A
                0x0000000337528560       0x10 C:/Users/DuyThanh/mingw64/bin/../lib/gcc/x86_64-w64-mingw32/13.2.0/../../../../x86_64-w64-mingw32/lib/../lib/libmingwex.a(lib64_libmingwex_a-strtodg.o)
                0x0000000337528560                .refptr.__bigtens_D2A
 .rdata$.refptr.__dyn_tls_init_callback
                0x0000000337528570       0x10 C:/Users/DuyThanh/mingw64/bin/../lib/gcc/x86_64-w64-mingw32/13.2.0/../../../../x86_64-w64-mingw32/lib/../lib/dllcrt2.o
                0x0000000337528570                .refptr.__dyn_tls_init_callback
 .rdata$.refptr.__hexdig_D2A
                0x0000000337528580       0x10 C:/Users/DuyThanh/mingw64/bin/../lib/gcc/x86_64-w64-mingw32/13.2.0/../../../../x86_64-w64-mingw32/lib/../lib/libmingwex.a(lib64_libmingwex_a-gethex.o)
                0x0000000337528580                .refptr.__hexdig_D2A
 .rdata$.refptr.__image_base__
                0x0000000337528590       0x10 C:/Users/DuyThanh/mingw64/bin/../lib/gcc/x86_64-w64-mingw32/13.2.0/../../../../x86_64-w64-mingw32/lib/../lib/libmingw32.a(lib64_libmingw32_a-pseudo-reloc.o)
                0x0000000337528590                .refptr.__image_base__
 .rdata$.refptr.__imp__exit
                0x00000003375285a0       0x10 C:/Users/DuyThanh/mingw64/bin/../lib/gcc/x86_64-w64-mingw32/13.2.0/../../../../x86_64-w64-mingw32/lib/../lib/libmingw32.a(lib64_libmingw32_a-exit_wrappers.o)
                0x00000003375285a0                .refptr.__imp__exit
 .rdata$.refptr.__imp_exit
                0x00000003375285b0       0x10 C:/Users/DuyThanh/mingw64/bin/../lib/gcc/x86_64-w64-mingw32/13.2.0/../../../../x86_64-w64-mingw32/lib/../lib/libmingw32.a(lib64_libmingw32_a-exit_wrappers.o)
                0x00000003375285b0                .refptr.__imp_exit
 .rdata$.refptr.__mingw_app_type
                0x00000003375285c0       0x10 C:/Users/DuyThanh/mingw64/bin/../lib/gcc/x86_64-w64-mingw32/13.2.0/../../../../x86_64-w64-mingw32/lib/../lib/dllcrt2.o
                0x00000003375285c0                .refptr.__mingw_app_type
 .rdata$.refptr.__native_dllmain_reason
                0x00000003375285d0       0x10 C:/Users/DuyThanh/mingw64/bin/../lib/gcc/x86_64-w64-mingw32/13.2.0/../../../../x86_64-w64-mingw32/lib/../lib/dllcrt2.o
                0x00000003375285d0                .refptr.__native_dllmain_reason
 .rdata$.refptr.__native_startup_lock
                0x00000003375285e0       0x10 C:/Users/DuyThanh/mingw64/bin/../lib/gcc/x86_64-w64-mingw32/13.2.0/../../../../x86_64-w64-mingw32/lib/../lib/dllcrt2.o
                0x00000003375285e0                .refptr.__native_startup_lock
 .rdata$.refptr.__native_startup_state
                0x00000003375285f0       0x10 C:/Users/DuyThanh/mingw64/bin/../lib/gcc/x86_64-w64-mingw32/13.2.0/../../../../x86_64-w64-mingw32/lib/../lib/dllcrt2.o
                0x00000003375285f0                .refptr.__native_startup_state
 .rdata$.refptr.__tens_D2A
                0x0000000337528600       0x10 C:/Users/DuyThanh/mingw64/bin/../lib/gcc/x86_64-w64-mingw32/13.2.0/../../../../x86_64-w64-mingw32/lib/../lib/libmingwex.a(lib64_libmingwex_a-strtodg.o)
                0x0000000337528600                .refptr.__tens_D2A
 .rdata$.refptr.__tinytens_D2A
                0x0000000337528610       0x10 C:/Users/DuyThanh/mingw64/bin/../lib/gcc/x86_64-w64-mingw32/13.2.0/../../../../x86_64-w64-mingw32/lib/../lib/libmingwex.a(lib64_libmingwex_a-strtodg.o)
                0x0000000337528610                .refptr.__tinytens_D2A
 .rdata$.refptr.__xc_a
                0x0000000337528620       0x10 C:/Users/DuyThanh/mingw64/bin/../lib/gcc/x86_64-w64-mingw32/13.2.0/../../../../x86_64-w64-mingw32/lib/../lib/dllcrt2.o
                0x0000000337528620                .refptr.__xc_a
 .rdata$.refptr.__xc_z
                0x0000000337528630       0x10 C:/Users/DuyThanh/mingw64/bin/../lib/gcc/x86_64-w64-mingw32/13.2.0/../../../../x86_64-w64-mingw32/lib/../lib/dllcrt2.o
                0x0000000337528630                .refptr.__xc_z
 .rdata$.refptr.__xi_a
                0x0000000337528640       0x10 C:/Users/DuyThanh/mingw64/bin/../lib/gcc/x86_64-w64-mingw32/13.2.0/../../../../x86_64-w64-mingw32/lib/../lib/dllcrt2.o
                0x0000000337528640                .refptr.__xi_a
 .rdata$.refptr.__xi_z
                0x0000000337528650       0x10 C:/Users/DuyThanh/mingw64/bin/../lib/gcc/x86_64-w64-mingw32/13.2.0/../../../../x86_64-w64-mingw32/lib/../lib/dllcrt2.o
                0x0000000337528650                .refptr.__xi_z
 .rdata$.refptr.fclose
                0x0000000337528660       0x10 C:\Users\DuyThanh\AppData\Local\Temp\cclGozRv.o
                0x0000000337528660                .refptr.fclose
 .rdata$.refptr.sqlite3_free
                0x0000000337528670       0x10 C:\Users\DuyThanh\AppData\Local\Temp\cclGozRv.o
                0x0000000337528670                .refptr.sqlite3_free
 .rdata$zzz     0x0000000337528680       0x50 C:\Users\DuyThanh\AppData\Local\Temp\ccRJjOEn.o
 .rdata$zzz     0x00000003375286d0       0x50 C:\Users\DuyThanh\AppData\Local\Temp\cclGozRv.o
 .rdata$zzz     0x0000000337528720       0x50 C:\Users\DuyThanh\AppData\Local\Temp\ccsXH6CC.o
                0x0000000337528770                . = ALIGN (0x4)
                0x0000000337528770                __rt_psrelocs_start = .
 *(.rdata_runtime_pseudo_reloc)
                0x0000000337528770                __rt_psrelocs_end = .
                0x0000000000000000                __rt_psrelocs_size = (__rt_psrelocs_end - __rt_psrelocs_start)
                0x0000000337528770                ___RUNTIME_PSEUDO_RELOC_LIST_END__ = .
                0x0000000337528770                __RUNTIME_PSEUDO_RELOC_LIST_END__ = .
                0x0000000337528770                ___RUNTIME_PSEUDO_RELOC_LIST__ = (. - __rt_psrelocs_size)
                0x0000000337528770                __RUNTIME_PSEUDO_RELOC_LIST__ = (. - __rt_psrelocs_size)

.eh_frame
 *(.eh_frame*)

.pdata          0x0000000337529000     0x7000
 *(.pdata*)
 .pdata         0x0000000337529000       0x3c C:/Users/DuyThanh/mingw64/bin/../lib/gcc/x86_64-w64-mingw32/13.2.0/../../../../x86_64-w64-mingw32/lib/../lib/dllcrt2.o
 .pdata         0x000000033752903c       0x18 C:/Users/DuyThanh/mingw64/bin/../lib/gcc/x86_64-w64-mingw32/13.2.0/crtbegin.o
 .pdata         0x0000000337529054       0xa8 C:\Users\DuyThanh\AppData\Local\Temp\ccRJjOEn.o
 .pdata         0x00000003375290fc     0x108c C:\Users\DuyThanh\AppData\Local\Temp\cclGozRv.o
 .pdata         0x000000033752a188     0x5748 C:\Users\DuyThanh\AppData\Local\Temp\ccsXH6CC.o
 .pdata         0x000000033752f8d0       0x24 C:/Users/DuyThanh/mingw64/bin/../lib/gcc/x86_64-w64-mingw32/13.2.0/../../../../x86_64-w64-mingw32/lib/../lib/libmingw32.a(lib64_libmingw32_a-gccmain.o)
 .pdata         0x000000033752f8f4       0x24 C:/Users/DuyThanh/mingw64/bin/../lib/gcc/x86_64-w64-mingw32/13.2.0/../../../../x86_64-w64-mingw32/lib/../lib/libmingw32.a(lib64_libmingw32_a-tlssup.o)
 .pdata         0x000000033752f918       0x24 C:/Users/DuyThanh/mingw64/bin/../lib/gcc/x86_64-w64-mingw32/13.2.0/../../../../x86_64-w64-mingw32/lib/../lib/libmingw32.a(lib64_libmingw32_a-pseudo-reloc.o)
 .pdata         0x000000033752f93c       0x30 C:/Users/DuyThanh/mingw64/bin/../lib/gcc/x86_64-w64-mingw32/13.2.0/../../../../x86_64-w64-mingw32/lib/../lib/libmingw32.a(lib64_libmingw32_a-tlsthrd.o)
 .pdata         0x000000033752f96c       0x18 C:/Users/DuyThanh/mingw64/bin/../lib/gcc/x86_64-w64-mingw32/13.2.0/../../../../x86_64-w64-mingw32/lib/../lib/libmingw32.a(lib64_libmingw32_a-exit_wrappers.o)
 .pdata         0x000000033752f984       0x6c C:/Users/DuyThanh/mingw64/bin/../lib/gcc/x86_64-w64-mingw32/13.2.0/../../../../x86_64-w64-mingw32/lib/../lib/libmingw32.a(lib64_libmingw32_a-pesect.o)
 .pdata         0x000000033752f9f0        0xc C:/Users/DuyThanh/mingw64/bin/../lib/gcc/x86_64-w64-mingw32/13.2.0/../../../../x86_64-w64-mingw32/lib/../lib/libmingw32.a(lib64_libmingw32_a-CRT_fp10.o)
 .pdata         0x000000033752f9fc        0xc C:/Users/DuyThanh/mingw64/bin/../lib/gcc/x86_64-w64-mingw32/13.2.0/../../../../x86_64-w64-mingw32/lib/../lib/libmingwex.a(lib64_libmingwex_a-dllentry.o)
 .pdata         0x000000033752fa08        0xc C:/Users/DuyThanh/mingw64/bin/../lib/gcc/x86_64-w64-mingw32/13.2.0/../../../../x86_64-w64-mingw32/lib/../lib/libmingwex.a(lib64_libmingwex_a-dllmain.o)
 .pdata         0x000000033752fa14        0xc C:/Users/DuyThanh/mingw64/bin/../lib/gcc/x86_64-w64-mingw32/13.2.0/../../../../x86_64-w64-mingw32/lib/../lib/libmingwex.a(lib64_libmingwex_a-strtodnrp.o)
 .pdata         0x000000033752fa20       0x48 C:/Users/DuyThanh/mingw64/bin/../lib/gcc/x86_64-w64-mingw32/13.2.0/../../../../x86_64-w64-mingw32/lib/../lib/libmingwex.a(lib64_libmingwex_a-dirent.o)
 .pdata         0x000000033752fa68        0xc C:/Users/DuyThanh/mingw64/bin/../lib/gcc/x86_64-w64-mingw32/13.2.0/../../../../x86_64-w64-mingw32/lib/../lib/libmingwex.a(lib64_libmingwex_a-mingw_vfprintf.o)
 .pdata         0x000000033752fa74       0x6c C:/Users/DuyThanh/mingw64/bin/../lib/gcc/x86_64-w64-mingw32/13.2.0/../../../../x86_64-w64-mingw32/lib/../lib/libmingwex.a(lib64_libmingwex_a-mingw_vfscanf.o)
 .pdata         0x000000033752fae0       0x3c C:/Users/DuyThanh/mingw64/bin/../lib/gcc/x86_64-w64-mingw32/13.2.0/../../../../x86_64-w64-mingw32/lib/../lib/libmingwex.a(lib64_libmingwex_a-strtodg.o)
 .pdata         0x000000033752fb1c        0xc C:/Users/DuyThanh/mingw64/bin/../lib/gcc/x86_64-w64-mingw32/13.2.0/../../../../x86_64-w64-mingw32/lib/../lib/libmingwex.a(lib64_libmingwex_a-strtof.o)
 .pdata         0x000000033752fb28        0xc C:/Users/DuyThanh/mingw64/bin/../lib/gcc/x86_64-w64-mingw32/13.2.0/../../../../x86_64-w64-mingw32/lib/../lib/libmingwex.a(lib64_libmingwex_a-strtopx.o)
 .pdata         0x000000033752fb34        0xc C:/Users/DuyThanh/mingw64/bin/../lib/gcc/x86_64-w64-mingw32/13.2.0/../../../../x86_64-w64-mingw32/lib/../lib/libmingwex.a(lib64_libmingwex_a-sum.o)
 .pdata         0x000000033752fb40       0xc0 C:/Users/DuyThanh/mingw64/bin/../lib/gcc/x86_64-w64-mingw32/13.2.0/../../../../x86_64-w64-mingw32/lib/../lib/libmingwex.a(lib64_libmingwex_a-mingw_pformat.o)
 .pdata         0x000000033752fc00       0x30 C:/Users/DuyThanh/mingw64/bin/../lib/gcc/x86_64-w64-mingw32/13.2.0/../../../../x86_64-w64-mingw32/lib/../lib/libmingwex.a(lib64_libmingwex_a-dmisc.o)
 .pdata         0x000000033752fc30        0xc C:/Users/DuyThanh/mingw64/bin/../lib/gcc/x86_64-w64-mingw32/13.2.0/../../../../x86_64-w64-mingw32/lib/../lib/libmingwex.a(lib64_libmingwex_a-gdtoa.o)
 .pdata         0x000000033752fc3c        0xc C:/Users/DuyThanh/mingw64/bin/../lib/gcc/x86_64-w64-mingw32/13.2.0/../../../../x86_64-w64-mingw32/lib/../lib/libmingwex.a(lib64_libmingwex_a-gethex.o)
 .pdata         0x000000033752fc48       0x18 C:/Users/DuyThanh/mingw64/bin/../lib/gcc/x86_64-w64-mingw32/13.2.0/../../../../x86_64-w64-mingw32/lib/../lib/libmingwex.a(lib64_libmingwex_a-gmisc.o)
 .pdata         0x000000033752fc60        0xc C:/Users/DuyThanh/mingw64/bin/../lib/gcc/x86_64-w64-mingw32/13.2.0/../../../../x86_64-w64-mingw32/lib/../lib/libmingwex.a(lib64_libmingwex_a-hd_init.o)
 .pdata         0x000000033752fc6c        0xc C:/Users/DuyThanh/mingw64/bin/../lib/gcc/x86_64-w64-mingw32/13.2.0/../../../../x86_64-w64-mingw32/lib/../lib/libmingwex.a(lib64_libmingwex_a-hexnan.o)
 .pdata         0x000000033752fc78       0xa8 C:/Users/DuyThanh/mingw64/bin/../lib/gcc/x86_64-w64-mingw32/13.2.0/../../../../x86_64-w64-mingw32/lib/../lib/libmingwex.a(lib64_libmingwex_a-misc.o)
 .pdata         0x000000033752fd20       0x3c C:/Users/DuyThanh/mingw64/bin/../lib/gcc/x86_64-w64-mingw32/13.2.0/../../../../x86_64-w64-mingw32/lib/../lib/libmingwex.a(lib64_libmingwex_a-smisc.o)
 .pdata         0x000000033752fd5c        0xc C:/Users/DuyThanh/mingw64/bin/../lib/gcc/x86_64-w64-mingw32/13.2.0/../../../../x86_64-w64-mingw32/lib/../lib/libmingwex.a(lib64_libmingwex_a-strnlen.o)
 .pdata         0x000000033752fd68        0xc C:/Users/DuyThanh/mingw64/bin/../lib/gcc/x86_64-w64-mingw32/13.2.0/../../../../x86_64-w64-mingw32/lib/../lib/libmingwex.a(lib64_libmingwex_a-wcsnlen.o)
 .pdata         0x000000033752fd74       0x18 C:/Users/DuyThanh/mingw64/bin/../lib/gcc/x86_64-w64-mingw32/13.2.0/../../../../x86_64-w64-mingw32/lib/../lib/libmsvcrt.a(lib64_libmsvcrt_extra_a-mingw_lock.o)
 .pdata         0x000000033752fd8c        0xc C:/Users/DuyThanh/mingw64/bin/../lib/gcc/x86_64-w64-mingw32/13.2.0/../../../../x86_64-w64-mingw32/lib/../lib/libmsvcrt.a(lib64_libmsvcrt_common_a-acrt_iob_func.o)
 .pdata         0x000000033752fd98       0x24 C:/Users/DuyThanh/mingw64/bin/../lib/gcc/x86_64-w64-mingw32/13.2.0/../../../../x86_64-w64-mingw32/lib/../lib/libmsvcrt.a(lib64_libmsvcrt_common_a-wcrtomb.o)
 .pdata         0x000000033752fdbc       0x24 C:/Users/DuyThanh/mingw64/bin/../lib/gcc/x86_64-w64-mingw32/13.2.0/../../../../x86_64-w64-mingw32/lib/../lib/libmsvcrt.a(lib64_libmsvcrt_common_a-onexit_table.o)
 .pdata         0x000000033752fde0       0x30 C:/Users/DuyThanh/mingw64/bin/../lib/gcc/x86_64-w64-mingw32/13.2.0/../../../../x86_64-w64-mingw32/lib/../lib/libmsvcrt.a(lib64_libmsvcrt_common_a-mbrtowc.o)
 .pdata.startup
                0x000000033752fe10        0xc C:/Users/DuyThanh/mingw64/bin/../lib/gcc/x86_64-w64-mingw32/13.2.0/crtend.o

.xdata          0x0000000337530000     0x7400
 *(.xdata*)
 .xdata         0x0000000337530000       0x30 C:/Users/DuyThanh/mingw64/bin/../lib/gcc/x86_64-w64-mingw32/13.2.0/../../../../x86_64-w64-mingw32/lib/../lib/dllcrt2.o
 .xdata         0x0000000337530030        0x8 C:/Users/DuyThanh/mingw64/bin/../lib/gcc/x86_64-w64-mingw32/13.2.0/crtbegin.o
 .xdata         0x0000000337530038       0x7c C:\Users\DuyThanh\AppData\Local\Temp\ccRJjOEn.o
 .xdata         0x00000003375300b4     0x1188 C:\Users\DuyThanh\AppData\Local\Temp\cclGozRv.o
 .xdata         0x000000033753123c     0x5ba0 C:\Users\DuyThanh\AppData\Local\Temp\ccsXH6CC.o
 .xdata         0x0000000337536ddc       0x18 C:/Users/DuyThanh/mingw64/bin/../lib/gcc/x86_64-w64-mingw32/13.2.0/../../../../x86_64-w64-mingw32/lib/../lib/libmingw32.a(lib64_libmingw32_a-gccmain.o)
 .xdata         0x0000000337536df4       0x18 C:/Users/DuyThanh/mingw64/bin/../lib/gcc/x86_64-w64-mingw32/13.2.0/../../../../x86_64-w64-mingw32/lib/../lib/libmingw32.a(lib64_libmingw32_a-tlssup.o)
 .xdata         0x0000000337536e0c       0x30 C:/Users/DuyThanh/mingw64/bin/../lib/gcc/x86_64-w64-mingw32/13.2.0/../../../../x86_64-w64-mingw32/lib/../lib/libmingw32.a(lib64_libmingw32_a-pseudo-reloc.o)
 .xdata         0x0000000337536e3c       0x30 C:/Users/DuyThanh/mingw64/bin/../lib/gcc/x86_64-w64-mingw32/13.2.0/../../../../x86_64-w64-mingw32/lib/../lib/libmingw32.a(lib64_libmingw32_a-tlsthrd.o)
 .xdata         0x0000000337536e6c       0x10 C:/Users/DuyThanh/mingw64/bin/../lib/gcc/x86_64-w64-mingw32/13.2.0/../../../../x86_64-w64-mingw32/lib/../lib/libmingw32.a(lib64_libmingw32_a-exit_wrappers.o)
 .xdata         0x0000000337536e7c       0x2c C:/Users/DuyThanh/mingw64/bin/../lib/gcc/x86_64-w64-mingw32/13.2.0/../../../../x86_64-w64-mingw32/lib/../lib/libmingw32.a(lib64_libmingw32_a-pesect.o)
 .xdata         0x0000000337536ea8        0x4 C:/Users/DuyThanh/mingw64/bin/../lib/gcc/x86_64-w64-mingw32/13.2.0/../../../../x86_64-w64-mingw32/lib/../lib/libmingw32.a(lib64_libmingw32_a-CRT_fp10.o)
 .xdata         0x0000000337536eac        0x4 C:/Users/DuyThanh/mingw64/bin/../lib/gcc/x86_64-w64-mingw32/13.2.0/../../../../x86_64-w64-mingw32/lib/../lib/libmingwex.a(lib64_libmingwex_a-dllentry.o)
 .xdata         0x0000000337536eb0        0x4 C:/Users/DuyThanh/mingw64/bin/../lib/gcc/x86_64-w64-mingw32/13.2.0/../../../../x86_64-w64-mingw32/lib/../lib/libmingwex.a(lib64_libmingwex_a-dllmain.o)
 .xdata         0x0000000337536eb4        0x8 C:/Users/DuyThanh/mingw64/bin/../lib/gcc/x86_64-w64-mingw32/13.2.0/../../../../x86_64-w64-mingw32/lib/../lib/libmingwex.a(lib64_libmingwex_a-strtodnrp.o)
 .xdata         0x0000000337536ebc       0x48 C:/Users/DuyThanh/mingw64/bin/../lib/gcc/x86_64-w64-mingw32/13.2.0/../../../../x86_64-w64-mingw32/lib/../lib/libmingwex.a(lib64_libmingwex_a-dirent.o)
 .xdata         0x0000000337536f04        0xc C:/Users/DuyThanh/mingw64/bin/../lib/gcc/x86_64-w64-mingw32/13.2.0/../../../../x86_64-w64-mingw32/lib/../lib/libmingwex.a(lib64_libmingwex_a-mingw_vfprintf.o)
 .xdata         0x0000000337536f10       0x78 C:/Users/DuyThanh/mingw64/bin/../lib/gcc/x86_64-w64-mingw32/13.2.0/../../../../x86_64-w64-mingw32/lib/../lib/libmingwex.a(lib64_libmingwex_a-mingw_vfscanf.o)
 .xdata         0x0000000337536f88       0x60 C:/Users/DuyThanh/mingw64/bin/../lib/gcc/x86_64-w64-mingw32/13.2.0/../../../../x86_64-w64-mingw32/lib/../lib/libmingwex.a(lib64_libmingwex_a-strtodg.o)
 .xdata         0x0000000337536fe8        0x8 C:/Users/DuyThanh/mingw64/bin/../lib/gcc/x86_64-w64-mingw32/13.2.0/../../../../x86_64-w64-mingw32/lib/../lib/libmingwex.a(lib64_libmingwex_a-strtof.o)
 .xdata         0x0000000337536ff0        0x8 C:/Users/DuyThanh/mingw64/bin/../lib/gcc/x86_64-w64-mingw32/13.2.0/../../../../x86_64-w64-mingw32/lib/../lib/libmingwex.a(lib64_libmingwex_a-strtopx.o)
 .xdata         0x0000000337536ff8       0x18 C:/Users/DuyThanh/mingw64/bin/../lib/gcc/x86_64-w64-mingw32/13.2.0/../../../../x86_64-w64-mingw32/lib/../lib/libmingwex.a(lib64_libmingwex_a-sum.o)
 .xdata         0x0000000337537010       0xf8 C:/Users/DuyThanh/mingw64/bin/../lib/gcc/x86_64-w64-mingw32/13.2.0/../../../../x86_64-w64-mingw32/lib/../lib/libmingwex.a(lib64_libmingwex_a-mingw_pformat.o)
 .xdata         0x0000000337537108       0x30 C:/Users/DuyThanh/mingw64/bin/../lib/gcc/x86_64-w64-mingw32/13.2.0/../../../../x86_64-w64-mingw32/lib/../lib/libmingwex.a(lib64_libmingwex_a-dmisc.o)
 .xdata         0x0000000337537138       0x18 C:/Users/DuyThanh/mingw64/bin/../lib/gcc/x86_64-w64-mingw32/13.2.0/../../../../x86_64-w64-mingw32/lib/../lib/libmingwex.a(lib64_libmingwex_a-gdtoa.o)
 .xdata         0x0000000337537150       0x18 C:/Users/DuyThanh/mingw64/bin/../lib/gcc/x86_64-w64-mingw32/13.2.0/../../../../x86_64-w64-mingw32/lib/../lib/libmingwex.a(lib64_libmingwex_a-gethex.o)
 .xdata         0x0000000337537168       0x14 C:/Users/DuyThanh/mingw64/bin/../lib/gcc/x86_64-w64-mingw32/13.2.0/../../../../x86_64-w64-mingw32/lib/../lib/libmingwex.a(lib64_libmingwex_a-gmisc.o)
 .xdata         0x000000033753717c        0x4 C:/Users/DuyThanh/mingw64/bin/../lib/gcc/x86_64-w64-mingw32/13.2.0/../../../../x86_64-w64-mingw32/lib/../lib/libmingwex.a(lib64_libmingwex_a-hd_init.o)
 .xdata         0x0000000337537180       0x18 C:/Users/DuyThanh/mingw64/bin/../lib/gcc/x86_64-w64-mingw32/13.2.0/../../../../x86_64-w64-mingw32/lib/../lib/libmingwex.a(lib64_libmingwex_a-hexnan.o)
 .xdata         0x0000000337537198       0xb0 C:/Users/DuyThanh/mingw64/bin/../lib/gcc/x86_64-w64-mingw32/13.2.0/../../../../x86_64-w64-mingw32/lib/../lib/libmingwex.a(lib64_libmingwex_a-misc.o)
 .xdata         0x0000000337537248       0x30 C:/Users/DuyThanh/mingw64/bin/../lib/gcc/x86_64-w64-mingw32/13.2.0/../../../../x86_64-w64-mingw32/lib/../lib/libmingwex.a(lib64_libmingwex_a-smisc.o)
 .xdata         0x0000000337537278        0x4 C:/Users/DuyThanh/mingw64/bin/../lib/gcc/x86_64-w64-mingw32/13.2.0/../../../../x86_64-w64-mingw32/lib/../lib/libmingwex.a(lib64_libmingwex_a-strnlen.o)
 .xdata         0x000000033753727c        0x4 C:/Users/DuyThanh/mingw64/bin/../lib/gcc/x86_64-w64-mingw32/13.2.0/../../../../x86_64-w64-mingw32/lib/../lib/libmingwex.a(lib64_libmingwex_a-wcsnlen.o)
 .xdata         0x0000000337537280       0x10 C:/Users/DuyThanh/mingw64/bin/../lib/gcc/x86_64-w64-mingw32/13.2.0/../../../../x86_64-w64-mingw32/lib/../lib/libmsvcrt.a(lib64_libmsvcrt_extra_a-mingw_lock.o)
 .xdata         0x0000000337537290        0x8 C:/Users/DuyThanh/mingw64/bin/../lib/gcc/x86_64-w64-mingw32/13.2.0/../../../../x86_64-w64-mingw32/lib/../lib/libmsvcrt.a(lib64_libmsvcrt_common_a-acrt_iob_func.o)
 .xdata         0x0000000337537298       0x28 C:/Users/DuyThanh/mingw64/bin/../lib/gcc/x86_64-w64-mingw32/13.2.0/../../../../x86_64-w64-mingw32/lib/../lib/libmsvcrt.a(lib64_libmsvcrt_common_a-wcrtomb.o)
 .xdata         0x00000003375372c0       0x20 C:/Users/DuyThanh/mingw64/bin/../lib/gcc/x86_64-w64-mingw32/13.2.0/../../../../x86_64-w64-mingw32/lib/../lib/libmsvcrt.a(lib64_libmsvcrt_common_a-onexit_table.o)
 .xdata         0x00000003375372e0       0x40 C:/Users/DuyThanh/mingw64/bin/../lib/gcc/x86_64-w64-mingw32/13.2.0/../../../../x86_64-w64-mingw32/lib/../lib/libmsvcrt.a(lib64_libmsvcrt_common_a-mbrtowc.o)
 .xdata.startup
                0x0000000337537320        0x4 C:/Users/DuyThanh/mingw64/bin/../lib/gcc/x86_64-w64-mingw32/13.2.0/crtend.o

.bss            0x0000000337538000     0x1290
                0x0000000337538000                __bss_start__ = .
 *(.bss)
 .bss           0x0000000337538000       0x20 C:/Users/DuyThanh/mingw64/bin/../lib/gcc/x86_64-w64-mingw32/13.2.0/../../../../x86_64-w64-mingw32/lib/../lib/dllcrt2.o
 .bss           0x0000000337538020        0x0 C:/Users/DuyThanh/mingw64/bin/../lib/gcc/x86_64-w64-mingw32/13.2.0/crtbegin.o
 .bss           0x0000000337538020       0x10 C:\Users\DuyThanh\AppData\Local\Temp\ccRJjOEn.o
                0x0000000337538020                sql_struct_ptr
 *fill*         0x0000000337538030       0x10 
 .bss           0x0000000337538040      0x1c0 C:\Users\DuyThanh\AppData\Local\Temp\cclGozRv.o
 .bss           0x0000000337538200      0x4a0 C:\Users\DuyThanh\AppData\Local\Temp\ccsXH6CC.o
                0x0000000337538200                sqlite3_data_directory
                0x0000000337538208                sqlite3_temp_directory
 .bss           0x00000003375386a0       0x10 C:/Users/DuyThanh/mingw64/bin/../lib/gcc/x86_64-w64-mingw32/13.2.0/../../../../x86_64-w64-mingw32/lib/../lib/libmingw32.a(lib64_libmingw32_a-gccmain.o)
 .bss           0x00000003375386b0       0x10 C:/Users/DuyThanh/mingw64/bin/../lib/gcc/x86_64-w64-mingw32/13.2.0/../../../../x86_64-w64-mingw32/lib/../lib/libmingw32.a(lib64_libmingw32_a-natstart.o)
                0x00000003375386b0                __native_startup_lock
                0x00000003375386b8                __native_startup_state
 .bss           0x00000003375386c0       0x10 C:/Users/DuyThanh/mingw64/bin/../lib/gcc/x86_64-w64-mingw32/13.2.0/../../../../x86_64-w64-mingw32/lib/../lib/libmingw32.a(lib64_libmingw32_a-tlssup.o)
                0x00000003375386c0                __mingw_initltssuo_force
                0x00000003375386c4                __mingw_initltsdyn_force
                0x00000003375386c8                __mingw_initltsdrot_force
                0x00000003375386cc                _tls_index
 .bss           0x00000003375386d0        0x0 C:/Users/DuyThanh/mingw64/bin/../lib/gcc/x86_64-w64-mingw32/13.2.0/../../../../x86_64-w64-mingw32/lib/../lib/libmingw32.a(lib64_libmingw32_a-cinitexe.o)
 .bss           0x00000003375386d0       0x10 C:/Users/DuyThanh/mingw64/bin/../lib/gcc/x86_64-w64-mingw32/13.2.0/../../../../x86_64-w64-mingw32/lib/../lib/libmingw32.a(lib64_libmingw32_a-mingw_helpers.o)
                0x00000003375386d0                __mingw_app_type
 .bss           0x00000003375386e0       0x10 C:/Users/DuyThanh/mingw64/bin/../lib/gcc/x86_64-w64-mingw32/13.2.0/../../../../x86_64-w64-mingw32/lib/../lib/libmingw32.a(lib64_libmingw32_a-pseudo-reloc.o)
 *fill*         0x00000003375386f0       0x10 
 .bss           0x0000000337538700       0x60 C:/Users/DuyThanh/mingw64/bin/../lib/gcc/x86_64-w64-mingw32/13.2.0/../../../../x86_64-w64-mingw32/lib/../lib/libmingw32.a(lib64_libmingw32_a-tlsthrd.o)
 .bss           0x0000000337538760        0x0 C:/Users/DuyThanh/mingw64/bin/../lib/gcc/x86_64-w64-mingw32/13.2.0/../../../../x86_64-w64-mingw32/lib/../lib/libmingw32.a(lib64_libmingw32_a-tlsmcrt.o)
 .bss           0x0000000337538760        0x0 C:/Users/DuyThanh/mingw64/bin/../lib/gcc/x86_64-w64-mingw32/13.2.0/../../../../x86_64-w64-mingw32/lib/../lib/libmingw32.a(lib64_libmingw32_a-exit_wrappers.o)
 .bss           0x0000000337538760       0x10 C:/Users/DuyThanh/mingw64/bin/../lib/gcc/x86_64-w64-mingw32/13.2.0/../../../../x86_64-w64-mingw32/lib/../lib/libmingw32.a(lib64_libmingw32_a-pseudo-reloc-list.o)
 .bss           0x0000000337538770        0x0 C:/Users/DuyThanh/mingw64/bin/../lib/gcc/x86_64-w64-mingw32/13.2.0/../../../../x86_64-w64-mingw32/lib/../lib/libmingw32.a(lib64_libmingw32_a-pesect.o)
 .bss           0x0000000337538770        0x0 C:/Users/DuyThanh/mingw64/bin/../lib/gcc/x86_64-w64-mingw32/13.2.0/../../../../x86_64-w64-mingw32/lib/../lib/libmingw32.a(lib64_libmingw32_a-CRT_fp10.o)
 .bss           0x0000000337538770        0x0 C:/Users/DuyThanh/mingw64/bin/../lib/gcc/x86_64-w64-mingw32/13.2.0/libgcc.a(_chkstk_ms.o)
 .bss           0x0000000337538770       0x20 C:/Users/DuyThanh/mingw64/bin/../lib/gcc/x86_64-w64-mingw32/13.2.0/libgcc.a(_ctors.o)
 .bss           0x0000000337538790        0x0 C:/Users/DuyThanh/mingw64/bin/../lib/gcc/x86_64-w64-mingw32/13.2.0/../../../../x86_64-w64-mingw32/lib/../lib/libmingwex.a(lib64_libmingwex_a-dllentry.o)
 .bss           0x0000000337538790        0x0 C:/Users/DuyThanh/mingw64/bin/../lib/gcc/x86_64-w64-mingw32/13.2.0/../../../../x86_64-w64-mingw32/lib/../lib/libmingwex.a(lib64_libmingwex_a-dllmain.o)
 .bss           0x0000000337538790        0x0 C:/Users/DuyThanh/mingw64/bin/../lib/gcc/x86_64-w64-mingw32/13.2.0/../../../../x86_64-w64-mingw32/lib/../lib/libmingwex.a(lib64_libmingwex_a-strtodnrp.o)
 .bss           0x0000000337538790        0x0 C:/Users/DuyThanh/mingw64/bin/../lib/gcc/x86_64-w64-mingw32/13.2.0/../../../../x86_64-w64-mingw32/lib/../lib/libmingwex.a(lib64_libmingwex_a-dirent.o)
 .bss           0x0000000337538790        0x0 C:/Users/DuyThanh/mingw64/bin/../lib/gcc/x86_64-w64-mingw32/13.2.0/../../../../x86_64-w64-mingw32/lib/../lib/libmingwex.a(lib64_libmingwex_a-mingw_vfprintf.o)
 .bss           0x0000000337538790        0x0 C:/Users/DuyThanh/mingw64/bin/../lib/gcc/x86_64-w64-mingw32/13.2.0/../../../../x86_64-w64-mingw32/lib/../lib/libmingwex.a(lib64_libmingwex_a-mingw_vfscanf.o)
 .bss           0x0000000337538790        0x0 C:/Users/DuyThanh/mingw64/bin/../lib/gcc/x86_64-w64-mingw32/13.2.0/../../../../x86_64-w64-mingw32/lib/../lib/libmingwex.a(lib64_libmingwex_a-strtodg.o)
 .bss           0x0000000337538790        0x0 C:/Users/DuyThanh/mingw64/bin/../lib/gcc/x86_64-w64-mingw32/13.2.0/../../../../x86_64-w64-mingw32/lib/../lib/libmingwex.a(lib64_libmingwex_a-strtof.o)
 .bss           0x0000000337538790        0x0 C:/Users/DuyThanh/mingw64/bin/../lib/gcc/x86_64-w64-mingw32/13.2.0/../../../../x86_64-w64-mingw32/lib/../lib/libmingwex.a(lib64_libmingwex_a-strtopx.o)
 .bss           0x0000000337538790        0x0 C:/Users/DuyThanh/mingw64/bin/../lib/gcc/x86_64-w64-mingw32/13.2.0/../../../../x86_64-w64-mingw32/lib/../lib/libmingwex.a(lib64_libmingwex_a-sum.o)
 .bss           0x0000000337538790        0x0 C:/Users/DuyThanh/mingw64/bin/../lib/gcc/x86_64-w64-mingw32/13.2.0/../../../../x86_64-w64-mingw32/lib/../lib/libmingwex.a(lib64_libmingwex_a-mingw_pformat.o)
 .bss           0x0000000337538790        0x0 C:/Users/DuyThanh/mingw64/bin/../lib/gcc/x86_64-w64-mingw32/13.2.0/../../../../x86_64-w64-mingw32/lib/../lib/libmingwex.a(lib64_libmingwex_a-dmisc.o)
 .bss           0x0000000337538790        0x0 C:/Users/DuyThanh/mingw64/bin/../lib/gcc/x86_64-w64-mingw32/13.2.0/../../../../x86_64-w64-mingw32/lib/../lib/libmingwex.a(lib64_libmingwex_a-gdtoa.o)
 .bss           0x0000000337538790        0x0 C:/Users/DuyThanh/mingw64/bin/../lib/gcc/x86_64-w64-mingw32/13.2.0/../../../../x86_64-w64-mingw32/lib/../lib/libmingwex.a(lib64_libmingwex_a-gethex.o)
 .bss           0x0000000337538790        0x0 C:/Users/DuyThanh/mingw64/bin/../lib/gcc/x86_64-w64-mingw32/13.2.0/../../../../x86_64-w64-mingw32/lib/../lib/libmingwex.a(lib64_libmingwex_a-gmisc.o)
 *fill*         0x0000000337538790       0x10 
 .bss           0x00000003375387a0      0x100 C:/Users/DuyThanh/mingw64/bin/../lib/gcc/x86_64-w64-mingw32/13.2.0/../../../../x86_64-w64-mingw32/lib/../lib/libmingwex.a(lib64_libmingwex_a-hd_init.o)
                0x00000003375387a0                __hexdig_D2A
 .bss           0x00000003375388a0        0x0 C:/Users/DuyThanh/mingw64/bin/../lib/gcc/x86_64-w64-mingw32/13.2.0/../../../../x86_64-w64-mingw32/lib/../lib/libmingwex.a(lib64_libmingwex_a-hexnan.o)
 .bss           0x00000003375388a0      0x9e0 C:/Users/DuyThanh/mingw64/bin/../lib/gcc/x86_64-w64-mingw32/13.2.0/../../../../x86_64-w64-mingw32/lib/../lib/libmingwex.a(lib64_libmingwex_a-misc.o)
 .bss           0x0000000337539280        0x0 C:/Users/DuyThanh/mingw64/bin/../lib/gcc/x86_64-w64-mingw32/13.2.0/../../../../x86_64-w64-mingw32/lib/../lib/libmingwex.a(lib64_libmingwex_a-smisc.o)
 .bss           0x0000000337539280        0x0 C:/Users/DuyThanh/mingw64/bin/../lib/gcc/x86_64-w64-mingw32/13.2.0/../../../../x86_64-w64-mingw32/lib/../lib/libmingwex.a(lib64_libmingwex_a-strnlen.o)
 .bss           0x0000000337539280        0x0 C:/Users/DuyThanh/mingw64/bin/../lib/gcc/x86_64-w64-mingw32/13.2.0/../../../../x86_64-w64-mingw32/lib/../lib/libmingwex.a(lib64_libmingwex_a-wcsnlen.o)
 .bss           0x0000000337539280        0x0 C:/Users/DuyThanh/mingw64/bin/../lib/gcc/x86_64-w64-mingw32/13.2.0/../../../../x86_64-w64-mingw32/lib/../lib/libmsvcrt.a(lib64_libmsvcrt_extra_a-mingw_lock.o)
 .bss           0x0000000337539280        0x0 C:/Users/DuyThanh/mingw64/bin/../lib/gcc/x86_64-w64-mingw32/13.2.0/../../../../x86_64-w64-mingw32/lib/../lib/libmsvcrt.a(lib64_libmsvcrt_common_a-acrt_iob_func.o)
 .bss           0x0000000337539280        0x0 C:/Users/DuyThanh/mingw64/bin/../lib/gcc/x86_64-w64-mingw32/13.2.0/../../../../x86_64-w64-mingw32/lib/../lib/libmsvcrt.a(lib64_libmsvcrt_common_a-wcrtomb.o)
 .bss           0x0000000337539280        0x0 C:/Users/DuyThanh/mingw64/bin/../lib/gcc/x86_64-w64-mingw32/13.2.0/../../../../x86_64-w64-mingw32/lib/../lib/libmsvcrt.a(lib64_libmsvcrt_common_a-onexit_table.o)
 .bss           0x0000000337539280       0x10 C:/Users/DuyThanh/mingw64/bin/../lib/gcc/x86_64-w64-mingw32/13.2.0/../../../../x86_64-w64-mingw32/lib/../lib/libmsvcrt.a(lib64_libmsvcrt_common_a-mbrtowc.o)
 .bss           0x0000000337539290        0x0 C:/Users/DuyThanh/mingw64/bin/../lib/gcc/x86_64-w64-mingw32/13.2.0/../../../../x86_64-w64-mingw32/lib/../lib/libmsvcrt.a(libmsvcrt_defs00063.o)
 .bss           0x0000000337539290        0x0 C:/Users/DuyThanh/mingw64/bin/../lib/gcc/x86_64-w64-mingw32/13.2.0/../../../../x86_64-w64-mingw32/lib/../lib/libmsvcrt.a(libmsvcrt_defs00066.o)
 .bss           0x0000000337539290        0x0 C:/Users/DuyThanh/mingw64/bin/../lib/gcc/x86_64-w64-mingw32/13.2.0/../../../../x86_64-w64-mingw32/lib/../lib/libmsvcrt.a(libmsvcrt_defs00083.o)
 .bss           0x0000000337539290        0x0 C:/Users/DuyThanh/mingw64/bin/../lib/gcc/x86_64-w64-mingw32/13.2.0/../../../../x86_64-w64-mingw32/lib/../lib/libmsvcrt.a(libmsvcrt_defs00114.o)
 .bss           0x0000000337539290        0x0 C:/Users/DuyThanh/mingw64/bin/../lib/gcc/x86_64-w64-mingw32/13.2.0/../../../../x86_64-w64-mingw32/lib/../lib/libmsvcrt.a(libmsvcrt_defs00124.o)
 .bss           0x0000000337539290        0x0 C:/Users/DuyThanh/mingw64/bin/../lib/gcc/x86_64-w64-mingw32/13.2.0/../../../../x86_64-w64-mingw32/lib/../lib/libmsvcrt.a(libmsvcrt_defs00125.o)
 .bss           0x0000000337539290        0x0 C:/Users/DuyThanh/mingw64/bin/../lib/gcc/x86_64-w64-mingw32/13.2.0/../../../../x86_64-w64-mingw32/lib/../lib/libmsvcrt.a(libmsvcrt_defs00140.o)
 .bss           0x0000000337539290        0x0 C:/Users/DuyThanh/mingw64/bin/../lib/gcc/x86_64-w64-mingw32/13.2.0/../../../../x86_64-w64-mingw32/lib/../lib/libmsvcrt.a(libmsvcrt_defs00154.o)
 .bss           0x0000000337539290        0x0 C:/Users/DuyThanh/mingw64/bin/../lib/gcc/x86_64-w64-mingw32/13.2.0/../../../../x86_64-w64-mingw32/lib/../lib/libmsvcrt.a(libmsvcrt_defs00202.o)
 .bss           0x0000000337539290        0x0 C:/Users/DuyThanh/mingw64/bin/../lib/gcc/x86_64-w64-mingw32/13.2.0/../../../../x86_64-w64-mingw32/lib/../lib/libmsvcrt.a(libmsvcrt_defs00205.o)
 .bss           0x0000000337539290        0x0 C:/Users/DuyThanh/mingw64/bin/../lib/gcc/x86_64-w64-mingw32/13.2.0/../../../../x86_64-w64-mingw32/lib/../lib/libmsvcrt.a(libmsvcrt_defs00224.o)
 .bss           0x0000000337539290        0x0 C:/Users/DuyThanh/mingw64/bin/../lib/gcc/x86_64-w64-mingw32/13.2.0/../../../../x86_64-w64-mingw32/lib/../lib/libmsvcrt.a(libmsvcrt_defs00236.o)
 .bss           0x0000000337539290        0x0 C:/Users/DuyThanh/mingw64/bin/../lib/gcc/x86_64-w64-mingw32/13.2.0/../../../../x86_64-w64-mingw32/lib/../lib/libmsvcrt.a(libmsvcrt_defs00237.o)
 .bss           0x0000000337539290        0x0 C:/Users/DuyThanh/mingw64/bin/../lib/gcc/x86_64-w64-mingw32/13.2.0/../../../../x86_64-w64-mingw32/lib/../lib/libmsvcrt.a(libmsvcrt_defs00242.o)
 .bss           0x0000000337539290        0x0 C:/Users/DuyThanh/mingw64/bin/../lib/gcc/x86_64-w64-mingw32/13.2.0/../../../../x86_64-w64-mingw32/lib/../lib/libmsvcrt.a(libmsvcrt_defs00245.o)
 .bss           0x0000000337539290        0x0 C:/Users/DuyThanh/mingw64/bin/../lib/gcc/x86_64-w64-mingw32/13.2.0/../../../../x86_64-w64-mingw32/lib/../lib/libmsvcrt.a(libmsvcrt_defs00275.o)
 .bss           0x0000000337539290        0x0 C:/Users/DuyThanh/mingw64/bin/../lib/gcc/x86_64-w64-mingw32/13.2.0/../../../../x86_64-w64-mingw32/lib/../lib/libmsvcrt.a(libmsvcrt_defs00282.o)
 .bss           0x0000000337539290        0x0 C:/Users/DuyThanh/mingw64/bin/../lib/gcc/x86_64-w64-mingw32/13.2.0/../../../../x86_64-w64-mingw32/lib/../lib/libmsvcrt.a(libmsvcrt_defs00298.o)
 .bss           0x0000000337539290        0x0 C:/Users/DuyThanh/mingw64/bin/../lib/gcc/x86_64-w64-mingw32/13.2.0/../../../../x86_64-w64-mingw32/lib/../lib/libmsvcrt.a(libmsvcrt_defs00314.o)
 .bss           0x0000000337539290        0x0 C:/Users/DuyThanh/mingw64/bin/../lib/gcc/x86_64-w64-mingw32/13.2.0/../../../../x86_64-w64-mingw32/lib/../lib/libmsvcrt.a(libmsvcrt_defs00337.o)
 .bss           0x0000000337539290        0x0 C:/Users/DuyThanh/mingw64/bin/../lib/gcc/x86_64-w64-mingw32/13.2.0/../../../../x86_64-w64-mingw32/lib/../lib/libmsvcrt.a(libmsvcrt_defs00342.o)
 .bss           0x0000000337539290        0x0 C:/Users/DuyThanh/mingw64/bin/../lib/gcc/x86_64-w64-mingw32/13.2.0/../../../../x86_64-w64-mingw32/lib/../lib/libmsvcrt.a(libmsvcrt_defs00445.o)
 .bss           0x0000000337539290        0x0 C:/Users/DuyThanh/mingw64/bin/../lib/gcc/x86_64-w64-mingw32/13.2.0/../../../../x86_64-w64-mingw32/lib/../lib/libmsvcrt.a(libmsvcrt_defs00446.o)
 .bss           0x0000000337539290        0x0 C:/Users/DuyThanh/mingw64/bin/../lib/gcc/x86_64-w64-mingw32/13.2.0/../../../../x86_64-w64-mingw32/lib/../lib/libmsvcrt.a(libmsvcrt_defs00607.o)
 .bss           0x0000000337539290        0x0 C:/Users/DuyThanh/mingw64/bin/../lib/gcc/x86_64-w64-mingw32/13.2.0/../../../../x86_64-w64-mingw32/lib/../lib/libmsvcrt.a(libmsvcrt_defs00624.o)
 .bss           0x0000000337539290        0x0 C:/Users/DuyThanh/mingw64/bin/../lib/gcc/x86_64-w64-mingw32/13.2.0/../../../../x86_64-w64-mingw32/lib/../lib/libmsvcrt.a(libmsvcrt_defs00629.o)
 .bss           0x0000000337539290        0x0 C:/Users/DuyThanh/mingw64/bin/../lib/gcc/x86_64-w64-mingw32/13.2.0/../../../../x86_64-w64-mingw32/lib/../lib/libmsvcrt.a(libmsvcrt_defs00683.o)
 .bss           0x0000000337539290        0x0 C:/Users/DuyThanh/mingw64/bin/../lib/gcc/x86_64-w64-mingw32/13.2.0/../../../../x86_64-w64-mingw32/lib/../lib/libmsvcrt.a(libmsvcrt_defs00732.o)
 .bss           0x0000000337539290        0x0 C:/Users/DuyThanh/mingw64/bin/../lib/gcc/x86_64-w64-mingw32/13.2.0/../../../../x86_64-w64-mingw32/lib/../lib/libmsvcrt.a(libmsvcrt_defs00741.o)
 .bss           0x0000000337539290        0x0 C:/Users/DuyThanh/mingw64/bin/../lib/gcc/x86_64-w64-mingw32/13.2.0/../../../../x86_64-w64-mingw32/lib/../lib/libmsvcrt.a(libmsvcrt_defs00778.o)
 .bss           0x0000000337539290        0x0 C:/Users/DuyThanh/mingw64/bin/../lib/gcc/x86_64-w64-mingw32/13.2.0/../../../../x86_64-w64-mingw32/lib/../lib/libmsvcrt.a(libmsvcrt_defs00781.o)
 .bss           0x0000000337539290        0x0 C:/Users/DuyThanh/mingw64/bin/../lib/gcc/x86_64-w64-mingw32/13.2.0/../../../../x86_64-w64-mingw32/lib/../lib/libmsvcrt.a(libmsvcrt_defs00833.o)
 .bss           0x0000000337539290        0x0 C:/Users/DuyThanh/mingw64/bin/../lib/gcc/x86_64-w64-mingw32/13.2.0/../../../../x86_64-w64-mingw32/lib/../lib/libmsvcrt.a(libmsvcrt_defs00837.o)
 .bss           0x0000000337539290        0x0 C:/Users/DuyThanh/mingw64/bin/../lib/gcc/x86_64-w64-mingw32/13.2.0/../../../../x86_64-w64-mingw32/lib/../lib/libmsvcrt.a(libmsvcrt_defs01045.o)
 .bss           0x0000000337539290        0x0 C:/Users/DuyThanh/mingw64/bin/../lib/gcc/x86_64-w64-mingw32/13.2.0/../../../../x86_64-w64-mingw32/lib/../lib/libmsvcrt.a(libmsvcrt_defs01054.o)
 .bss           0x0000000337539290        0x0 C:/Users/DuyThanh/mingw64/bin/../lib/gcc/x86_64-w64-mingw32/13.2.0/../../../../x86_64-w64-mingw32/lib/../lib/libmsvcrt.a(libmsvcrt_defs01067.o)
 .bss           0x0000000337539290        0x0 C:/Users/DuyThanh/mingw64/bin/../lib/gcc/x86_64-w64-mingw32/13.2.0/../../../../x86_64-w64-mingw32/lib/../lib/libmsvcrt.a(libmsvcrt_defs01071.o)
 .bss           0x0000000337539290        0x0 C:/Users/DuyThanh/mingw64/bin/../lib/gcc/x86_64-w64-mingw32/13.2.0/../../../../x86_64-w64-mingw32/lib/../lib/libmsvcrt.a(libmsvcrt_defs01085.o)
 .bss           0x0000000337539290        0x0 C:/Users/DuyThanh/mingw64/bin/../lib/gcc/x86_64-w64-mingw32/13.2.0/../../../../x86_64-w64-mingw32/lib/../lib/libmsvcrt.a(libmsvcrt_defs01089.o)
 .bss           0x0000000337539290        0x0 C:/Users/DuyThanh/mingw64/bin/../lib/gcc/x86_64-w64-mingw32/13.2.0/../../../../x86_64-w64-mingw32/lib/../lib/libmsvcrt.a(libmsvcrt_defs01092.o)
 .bss           0x0000000337539290        0x0 C:/Users/DuyThanh/mingw64/bin/../lib/gcc/x86_64-w64-mingw32/13.2.0/../../../../x86_64-w64-mingw32/lib/../lib/libmsvcrt.a(libmsvcrt_defs01093.o)
 .bss           0x0000000337539290        0x0 C:/Users/DuyThanh/mingw64/bin/../lib/gcc/x86_64-w64-mingw32/13.2.0/../../../../x86_64-w64-mingw32/lib/../lib/libmsvcrt.a(libmsvcrt_defs01095.o)
 .bss           0x0000000337539290        0x0 C:/Users/DuyThanh/mingw64/bin/../lib/gcc/x86_64-w64-mingw32/13.2.0/../../../../x86_64-w64-mingw32/lib/../lib/libmsvcrt.a(libmsvcrt_defs01102.o)
 .bss           0x0000000337539290        0x0 C:/Users/DuyThanh/mingw64/bin/../lib/gcc/x86_64-w64-mingw32/13.2.0/../../../../x86_64-w64-mingw32/lib/../lib/libmsvcrt.a(libmsvcrt_defs01107.o)
 .bss           0x0000000337539290        0x0 C:/Users/DuyThanh/mingw64/bin/../lib/gcc/x86_64-w64-mingw32/13.2.0/../../../../x86_64-w64-mingw32/lib/../lib/libmsvcrt.a(libmsvcrt_defs01108.o)
 .bss           0x0000000337539290        0x0 C:/Users/DuyThanh/mingw64/bin/../lib/gcc/x86_64-w64-mingw32/13.2.0/../../../../x86_64-w64-mingw32/lib/../lib/libmsvcrt.a(libmsvcrt_defs01111.o)
 .bss           0x0000000337539290        0x0 C:/Users/DuyThanh/mingw64/bin/../lib/gcc/x86_64-w64-mingw32/13.2.0/../../../../x86_64-w64-mingw32/lib/../lib/libmsvcrt.a(libmsvcrt_defs01112.o)
 .bss           0x0000000337539290        0x0 C:/Users/DuyThanh/mingw64/bin/../lib/gcc/x86_64-w64-mingw32/13.2.0/../../../../x86_64-w64-mingw32/lib/../lib/libmsvcrt.a(libmsvcrt_defs01121.o)
 .bss           0x0000000337539290        0x0 C:/Users/DuyThanh/mingw64/bin/../lib/gcc/x86_64-w64-mingw32/13.2.0/../../../../x86_64-w64-mingw32/lib/../lib/libmsvcrt.a(libmsvcrt_defs01122.o)
 .bss           0x0000000337539290        0x0 C:/Users/DuyThanh/mingw64/bin/../lib/gcc/x86_64-w64-mingw32/13.2.0/../../../../x86_64-w64-mingw32/lib/../lib/libmsvcrt.a(libmsvcrt_defs01125.o)
 .bss           0x0000000337539290        0x0 C:/Users/DuyThanh/mingw64/bin/../lib/gcc/x86_64-w64-mingw32/13.2.0/../../../../x86_64-w64-mingw32/lib/../lib/libmsvcrt.a(libmsvcrt_defs01129.o)
 .bss           0x0000000337539290        0x0 C:/Users/DuyThanh/mingw64/bin/../lib/gcc/x86_64-w64-mingw32/13.2.0/../../../../x86_64-w64-mingw32/lib/../lib/libmsvcrt.a(libmsvcrt_defs01131.o)
 .bss           0x0000000337539290        0x0 C:/Users/DuyThanh/mingw64/bin/../lib/gcc/x86_64-w64-mingw32/13.2.0/../../../../x86_64-w64-mingw32/lib/../lib/libmsvcrt.a(libmsvcrt_defs01138.o)
 .bss           0x0000000337539290        0x0 C:/Users/DuyThanh/mingw64/bin/../lib/gcc/x86_64-w64-mingw32/13.2.0/../../../../x86_64-w64-mingw32/lib/../lib/libmsvcrt.a(libmsvcrt_defs01139.o)
 .bss           0x0000000337539290        0x0 C:/Users/DuyThanh/mingw64/bin/../lib/gcc/x86_64-w64-mingw32/13.2.0/../../../../x86_64-w64-mingw32/lib/../lib/libmsvcrt.a(libmsvcrt_defs01145.o)
 .bss           0x0000000337539290        0x0 C:/Users/DuyThanh/mingw64/bin/../lib/gcc/x86_64-w64-mingw32/13.2.0/../../../../x86_64-w64-mingw32/lib/../lib/libmsvcrt.a(libmsvcrt_defs01147.o)
 .bss           0x0000000337539290        0x0 C:/Users/DuyThanh/mingw64/bin/../lib/gcc/x86_64-w64-mingw32/13.2.0/../../../../x86_64-w64-mingw32/lib/../lib/libmsvcrt.a(libmsvcrt_defs01162.o)
 .bss           0x0000000337539290        0x0 C:/Users/DuyThanh/mingw64/bin/../lib/gcc/x86_64-w64-mingw32/13.2.0/../../../../x86_64-w64-mingw32/lib/../lib/libmsvcrt.a(libmsvcrt_defs01166.o)
 .bss           0x0000000337539290        0x0 C:/Users/DuyThanh/mingw64/bin/../lib/gcc/x86_64-w64-mingw32/13.2.0/../../../../x86_64-w64-mingw32/lib/../lib/libmsvcrt.a(libmsvcrt_defs01173.o)
 .bss           0x0000000337539290        0x0 C:/Users/DuyThanh/mingw64/bin/../lib/gcc/x86_64-w64-mingw32/13.2.0/../../../../x86_64-w64-mingw32/lib/../lib/libmsvcrt.a(libmsvcrt_defs01181.o)
 .bss           0x0000000337539290        0x0 C:/Users/DuyThanh/mingw64/bin/../lib/gcc/x86_64-w64-mingw32/13.2.0/../../../../x86_64-w64-mingw32/lib/../lib/libmsvcrt.a(libmsvcrt_defs01182.o)
 .bss           0x0000000337539290        0x0 C:/Users/DuyThanh/mingw64/bin/../lib/gcc/x86_64-w64-mingw32/13.2.0/../../../../x86_64-w64-mingw32/lib/../lib/libmsvcrt.a(libmsvcrt_defs01183.o)
 .bss           0x0000000337539290        0x0 C:/Users/DuyThanh/mingw64/bin/../lib/gcc/x86_64-w64-mingw32/13.2.0/../../../../x86_64-w64-mingw32/lib/../lib/libmsvcrt.a(libmsvcrt_defs01184.o)
 .bss           0x0000000337539290        0x0 C:/Users/DuyThanh/mingw64/bin/../lib/gcc/x86_64-w64-mingw32/13.2.0/../../../../x86_64-w64-mingw32/lib/../lib/libmsvcrt.a(libmsvcrt_defs01185.o)
 .bss           0x0000000337539290        0x0 C:/Users/DuyThanh/mingw64/bin/../lib/gcc/x86_64-w64-mingw32/13.2.0/../../../../x86_64-w64-mingw32/lib/../lib/libmsvcrt.a(libmsvcrt_defs01203.o)
 .bss           0x0000000337539290        0x0 C:/Users/DuyThanh/mingw64/bin/../lib/gcc/x86_64-w64-mingw32/13.2.0/../../../../x86_64-w64-mingw32/lib/../lib/libmsvcrt.a(libmsvcrt_defs01206.o)
 .bss           0x0000000337539290        0x0 C:/Users/DuyThanh/mingw64/bin/../lib/gcc/x86_64-w64-mingw32/13.2.0/../../../../x86_64-w64-mingw32/lib/../lib/libmsvcrt.a(libmsvcrt_defs01212.o)
 .bss           0x0000000337539290        0x0 C:/Users/DuyThanh/mingw64/bin/../lib/gcc/x86_64-w64-mingw32/13.2.0/../../../../x86_64-w64-mingw32/lib/../lib/libmsvcrt.a(libmsvcrt_defs01228.o)
 .bss           0x0000000337539290        0x0 C:/Users/DuyThanh/mingw64/bin/../lib/gcc/x86_64-w64-mingw32/13.2.0/../../../../x86_64-w64-mingw32/lib/../lib/libmsvcrt.a(libmsvcrt_defs01229.o)
 .bss           0x0000000337539290        0x0 C:/Users/DuyThanh/mingw64/bin/../lib/gcc/x86_64-w64-mingw32/13.2.0/../../../../x86_64-w64-mingw32/lib/../lib/libmsvcrt.a(libmsvcrt_defs01231.o)
 .bss           0x0000000337539290        0x0 C:/Users/DuyThanh/mingw64/bin/../lib/gcc/x86_64-w64-mingw32/13.2.0/../../../../x86_64-w64-mingw32/lib/../lib/libmsvcrt.a(libmsvcrt_defs01233.o)
 .bss           0x0000000337539290        0x0 C:/Users/DuyThanh/mingw64/bin/../lib/gcc/x86_64-w64-mingw32/13.2.0/../../../../x86_64-w64-mingw32/lib/../lib/libmsvcrt.a(libmsvcrt_defs01234.o)
 .bss           0x0000000337539290        0x0 C:/Users/DuyThanh/mingw64/bin/../lib/gcc/x86_64-w64-mingw32/13.2.0/../../../../x86_64-w64-mingw32/lib/../lib/libmsvcrt.a(libmsvcrt_defs01236.o)
 .bss           0x0000000337539290        0x0 C:/Users/DuyThanh/mingw64/bin/../lib/gcc/x86_64-w64-mingw32/13.2.0/../../../../x86_64-w64-mingw32/lib/../lib/libmsvcrt.a(libmsvcrt_defs01239.o)
 .bss           0x0000000337539290        0x0 C:/Users/DuyThanh/mingw64/bin/../lib/gcc/x86_64-w64-mingw32/13.2.0/../../../../x86_64-w64-mingw32/lib/../lib/libmsvcrt.a(libmsvcrt_defs01240.o)
 .bss           0x0000000337539290        0x0 C:/Users/DuyThanh/mingw64/bin/../lib/gcc/x86_64-w64-mingw32/13.2.0/../../../../x86_64-w64-mingw32/lib/../lib/libmsvcrt.a(libmsvcrt_defs01243.o)
 .bss           0x0000000337539290        0x0 C:/Users/DuyThanh/mingw64/bin/../lib/gcc/x86_64-w64-mingw32/13.2.0/../../../../x86_64-w64-mingw32/lib/../lib/libmsvcrt.a(libmsvcrt_defs01244.o)
 .bss           0x0000000337539290        0x0 C:/Users/DuyThanh/mingw64/bin/../lib/gcc/x86_64-w64-mingw32/13.2.0/../../../../x86_64-w64-mingw32/lib/../lib/libmsvcrt.a(libmsvcrt_defs01245.o)
 .bss           0x0000000337539290        0x0 C:/Users/DuyThanh/mingw64/bin/../lib/gcc/x86_64-w64-mingw32/13.2.0/../../../../x86_64-w64-mingw32/lib/../lib/libmsvcrt.a(libmsvcrt_defs01249.o)
 .bss           0x0000000337539290        0x0 C:/Users/DuyThanh/mingw64/bin/../lib/gcc/x86_64-w64-mingw32/13.2.0/../../../../x86_64-w64-mingw32/lib/../lib/libmsvcrt.a(libmsvcrt_defs01250.o)
 .bss           0x0000000337539290        0x0 C:/Users/DuyThanh/mingw64/bin/../lib/gcc/x86_64-w64-mingw32/13.2.0/../../../../x86_64-w64-mingw32/lib/../lib/libmsvcrt.a(libmsvcrt_defs01259.o)
 .bss           0x0000000337539290        0x0 C:/Users/DuyThanh/mingw64/bin/../lib/gcc/x86_64-w64-mingw32/13.2.0/../../../../x86_64-w64-mingw32/lib/../lib/libmsvcrt.a(libmsvcrt_defs01267.o)
 .bss           0x0000000337539290        0x0 C:/Users/DuyThanh/mingw64/bin/../lib/gcc/x86_64-w64-mingw32/13.2.0/../../../../x86_64-w64-mingw32/lib/../lib/libmsvcrt.a(libmsvcrt_defs01273.o)
 .bss           0x0000000337539290        0x0 C:/Users/DuyThanh/mingw64/bin/../lib/gcc/x86_64-w64-mingw32/13.2.0/../../../../x86_64-w64-mingw32/lib/../lib/libmsvcrt.a(libmsvcrt_defs01274.o)
 .bss           0x0000000337539290        0x0 C:/Users/DuyThanh/mingw64/bin/../lib/gcc/x86_64-w64-mingw32/13.2.0/../../../../x86_64-w64-mingw32/lib/../lib/libmsvcrt.a(libmsvcrt_defs01300.o)
 .bss           0x0000000337539290        0x0 C:/Users/DuyThanh/mingw64/bin/../lib/gcc/x86_64-w64-mingw32/13.2.0/../../../../x86_64-w64-mingw32/lib/../lib/libmsvcrt.a(libmsvcrt_defh.o)
 .bss           0x0000000337539290        0x0 C:/Users/DuyThanh/mingw64/bin/../lib/gcc/x86_64-w64-mingw32/13.2.0/../../../../x86_64-w64-mingw32/lib/../lib/libmsvcrt.a(libmsvcrt_deft.o)
 .bss           0x0000000337539290        0x0 C:/Users/DuyThanh/mingw64/bin/../lib/gcc/x86_64-w64-mingw32/13.2.0/../../../../x86_64-w64-mingw32/lib/../lib/libkernel32.a(libkernel32s01563.o)
 .bss           0x0000000337539290        0x0 C:/Users/DuyThanh/mingw64/bin/../lib/gcc/x86_64-w64-mingw32/13.2.0/../../../../x86_64-w64-mingw32/lib/../lib/libkernel32.a(libkernel32s01562.o)
 .bss           0x0000000337539290        0x0 C:/Users/DuyThanh/mingw64/bin/../lib/gcc/x86_64-w64-mingw32/13.2.0/../../../../x86_64-w64-mingw32/lib/../lib/libkernel32.a(libkernel32s01543.o)
 .bss           0x0000000337539290        0x0 C:/Users/DuyThanh/mingw64/bin/../lib/gcc/x86_64-w64-mingw32/13.2.0/../../../../x86_64-w64-mingw32/lib/../lib/libkernel32.a(libkernel32s01500.o)
 .bss           0x0000000337539290        0x0 C:/Users/DuyThanh/mingw64/bin/../lib/gcc/x86_64-w64-mingw32/13.2.0/../../../../x86_64-w64-mingw32/lib/../lib/libkernel32.a(libkernel32s01499.o)
 .bss           0x0000000337539290        0x0 C:/Users/DuyThanh/mingw64/bin/../lib/gcc/x86_64-w64-mingw32/13.2.0/../../../../x86_64-w64-mingw32/lib/../lib/libkernel32.a(libkernel32s01490.o)
 .bss           0x0000000337539290        0x0 C:/Users/DuyThanh/mingw64/bin/../lib/gcc/x86_64-w64-mingw32/13.2.0/../../../../x86_64-w64-mingw32/lib/../lib/libkernel32.a(libkernel32s01488.o)
 .bss           0x0000000337539290        0x0 C:/Users/DuyThanh/mingw64/bin/../lib/gcc/x86_64-w64-mingw32/13.2.0/../../../../x86_64-w64-mingw32/lib/../lib/libkernel32.a(libkernel32s01458.o)
 .bss           0x0000000337539290        0x0 C:/Users/DuyThanh/mingw64/bin/../lib/gcc/x86_64-w64-mingw32/13.2.0/../../../../x86_64-w64-mingw32/lib/../lib/libkernel32.a(libkernel32s01457.o)
 .bss           0x0000000337539290        0x0 C:/Users/DuyThanh/mingw64/bin/../lib/gcc/x86_64-w64-mingw32/13.2.0/../../../../x86_64-w64-mingw32/lib/../lib/libkernel32.a(libkernel32s01456.o)
 .bss           0x0000000337539290        0x0 C:/Users/DuyThanh/mingw64/bin/../lib/gcc/x86_64-w64-mingw32/13.2.0/../../../../x86_64-w64-mingw32/lib/../lib/libkernel32.a(libkernel32s01448.o)
 .bss           0x0000000337539290        0x0 C:/Users/DuyThanh/mingw64/bin/../lib/gcc/x86_64-w64-mingw32/13.2.0/../../../../x86_64-w64-mingw32/lib/../lib/libkernel32.a(libkernel32s01441.o)
 .bss           0x0000000337539290        0x0 C:/Users/DuyThanh/mingw64/bin/../lib/gcc/x86_64-w64-mingw32/13.2.0/../../../../x86_64-w64-mingw32/lib/../lib/libkernel32.a(libkernel32s01417.o)
 .bss           0x0000000337539290        0x0 C:/Users/DuyThanh/mingw64/bin/../lib/gcc/x86_64-w64-mingw32/13.2.0/../../../../x86_64-w64-mingw32/lib/../lib/libkernel32.a(libkernel32s01406.o)
 .bss           0x0000000337539290        0x0 C:/Users/DuyThanh/mingw64/bin/../lib/gcc/x86_64-w64-mingw32/13.2.0/../../../../x86_64-w64-mingw32/lib/../lib/libkernel32.a(libkernel32s01320.o)
 .bss           0x0000000337539290        0x0 C:/Users/DuyThanh/mingw64/bin/../lib/gcc/x86_64-w64-mingw32/13.2.0/../../../../x86_64-w64-mingw32/lib/../lib/libkernel32.a(libkernel32s01316.o)
 .bss           0x0000000337539290        0x0 C:/Users/DuyThanh/mingw64/bin/../lib/gcc/x86_64-w64-mingw32/13.2.0/../../../../x86_64-w64-mingw32/lib/../lib/libkernel32.a(libkernel32s01297.o)
 .bss           0x0000000337539290        0x0 C:/Users/DuyThanh/mingw64/bin/../lib/gcc/x86_64-w64-mingw32/13.2.0/../../../../x86_64-w64-mingw32/lib/../lib/libkernel32.a(libkernel32s01290.o)
 .bss           0x0000000337539290        0x0 C:/Users/DuyThanh/mingw64/bin/../lib/gcc/x86_64-w64-mingw32/13.2.0/../../../../x86_64-w64-mingw32/lib/../lib/libkernel32.a(libkernel32s01283.o)
 .bss           0x0000000337539290        0x0 C:/Users/DuyThanh/mingw64/bin/../lib/gcc/x86_64-w64-mingw32/13.2.0/../../../../x86_64-w64-mingw32/lib/../lib/libkernel32.a(libkernel32s01274.o)
 .bss           0x0000000337539290        0x0 C:/Users/DuyThanh/mingw64/bin/../lib/gcc/x86_64-w64-mingw32/13.2.0/../../../../x86_64-w64-mingw32/lib/../lib/libkernel32.a(libkernel32s01258.o)
 .bss           0x0000000337539290        0x0 C:/Users/DuyThanh/mingw64/bin/../lib/gcc/x86_64-w64-mingw32/13.2.0/../../../../x86_64-w64-mingw32/lib/../lib/libkernel32.a(libkernel32s01167.o)
 .bss           0x0000000337539290        0x0 C:/Users/DuyThanh/mingw64/bin/../lib/gcc/x86_64-w64-mingw32/13.2.0/../../../../x86_64-w64-mingw32/lib/../lib/libkernel32.a(libkernel32s01164.o)
 .bss           0x0000000337539290        0x0 C:/Users/DuyThanh/mingw64/bin/../lib/gcc/x86_64-w64-mingw32/13.2.0/../../../../x86_64-w64-mingw32/lib/../lib/libkernel32.a(libkernel32s01128.o)
 .bss           0x0000000337539290        0x0 C:/Users/DuyThanh/mingw64/bin/../lib/gcc/x86_64-w64-mingw32/13.2.0/../../../../x86_64-w64-mingw32/lib/../lib/libkernel32.a(libkernel32s01076.o)
 .bss           0x0000000337539290        0x0 C:/Users/DuyThanh/mingw64/bin/../lib/gcc/x86_64-w64-mingw32/13.2.0/../../../../x86_64-w64-mingw32/lib/../lib/libkernel32.a(libkernel32s01075.o)
 .bss           0x0000000337539290        0x0 C:/Users/DuyThanh/mingw64/bin/../lib/gcc/x86_64-w64-mingw32/13.2.0/../../../../x86_64-w64-mingw32/lib/../lib/libkernel32.a(libkernel32s01033.o)
 .bss           0x0000000337539290        0x0 C:/Users/DuyThanh/mingw64/bin/../lib/gcc/x86_64-w64-mingw32/13.2.0/../../../../x86_64-w64-mingw32/lib/../lib/libkernel32.a(libkernel32s01016.o)
 .bss           0x0000000337539290        0x0 C:/Users/DuyThanh/mingw64/bin/../lib/gcc/x86_64-w64-mingw32/13.2.0/../../../../x86_64-w64-mingw32/lib/../lib/libkernel32.a(libkernel32s01012.o)
 .bss           0x0000000337539290        0x0 C:/Users/DuyThanh/mingw64/bin/../lib/gcc/x86_64-w64-mingw32/13.2.0/../../../../x86_64-w64-mingw32/lib/../lib/libkernel32.a(libkernel32s01011.o)
 .bss           0x0000000337539290        0x0 C:/Users/DuyThanh/mingw64/bin/../lib/gcc/x86_64-w64-mingw32/13.2.0/../../../../x86_64-w64-mingw32/lib/../lib/libkernel32.a(libkernel32s00999.o)
 .bss           0x0000000337539290        0x0 C:/Users/DuyThanh/mingw64/bin/../lib/gcc/x86_64-w64-mingw32/13.2.0/../../../../x86_64-w64-mingw32/lib/../lib/libkernel32.a(libkernel32s00988.o)
 .bss           0x0000000337539290        0x0 C:/Users/DuyThanh/mingw64/bin/../lib/gcc/x86_64-w64-mingw32/13.2.0/../../../../x86_64-w64-mingw32/lib/../lib/libkernel32.a(libkernel32s00985.o)
 .bss           0x0000000337539290        0x0 C:/Users/DuyThanh/mingw64/bin/../lib/gcc/x86_64-w64-mingw32/13.2.0/../../../../x86_64-w64-mingw32/lib/../lib/libkernel32.a(libkernel32s00981.o)
 .bss           0x0000000337539290        0x0 C:/Users/DuyThanh/mingw64/bin/../lib/gcc/x86_64-w64-mingw32/13.2.0/../../../../x86_64-w64-mingw32/lib/../lib/libkernel32.a(libkernel32s00916.o)
 .bss           0x0000000337539290        0x0 C:/Users/DuyThanh/mingw64/bin/../lib/gcc/x86_64-w64-mingw32/13.2.0/../../../../x86_64-w64-mingw32/lib/../lib/libkernel32.a(libkernel32s00889.o)
 .bss           0x0000000337539290        0x0 C:/Users/DuyThanh/mingw64/bin/../lib/gcc/x86_64-w64-mingw32/13.2.0/../../../../x86_64-w64-mingw32/lib/../lib/libkernel32.a(libkernel32s00876.o)
 .bss           0x0000000337539290        0x0 C:/Users/DuyThanh/mingw64/bin/../lib/gcc/x86_64-w64-mingw32/13.2.0/../../../../x86_64-w64-mingw32/lib/../lib/libkernel32.a(libkernel32s00872.o)
 .bss           0x0000000337539290        0x0 C:/Users/DuyThanh/mingw64/bin/../lib/gcc/x86_64-w64-mingw32/13.2.0/../../../../x86_64-w64-mingw32/lib/../lib/libkernel32.a(libkernel32s00870.o)
 .bss           0x0000000337539290        0x0 C:/Users/DuyThanh/mingw64/bin/../lib/gcc/x86_64-w64-mingw32/13.2.0/../../../../x86_64-w64-mingw32/lib/../lib/libkernel32.a(libkernel32s00866.o)
 .bss           0x0000000337539290        0x0 C:/Users/DuyThanh/mingw64/bin/../lib/gcc/x86_64-w64-mingw32/13.2.0/../../../../x86_64-w64-mingw32/lib/../lib/libkernel32.a(libkernel32s00864.o)
 .bss           0x0000000337539290        0x0 C:/Users/DuyThanh/mingw64/bin/../lib/gcc/x86_64-w64-mingw32/13.2.0/../../../../x86_64-w64-mingw32/lib/../lib/libkernel32.a(libkernel32s00862.o)
 .bss           0x0000000337539290        0x0 C:/Users/DuyThanh/mingw64/bin/../lib/gcc/x86_64-w64-mingw32/13.2.0/../../../../x86_64-w64-mingw32/lib/../lib/libkernel32.a(libkernel32s00861.o)
 .bss           0x0000000337539290        0x0 C:/Users/DuyThanh/mingw64/bin/../lib/gcc/x86_64-w64-mingw32/13.2.0/../../../../x86_64-w64-mingw32/lib/../lib/libkernel32.a(libkernel32s00860.o)
 .bss           0x0000000337539290        0x0 C:/Users/DuyThanh/mingw64/bin/../lib/gcc/x86_64-w64-mingw32/13.2.0/../../../../x86_64-w64-mingw32/lib/../lib/libkernel32.a(libkernel32s00796.o)
 .bss           0x0000000337539290        0x0 C:/Users/DuyThanh/mingw64/bin/../lib/gcc/x86_64-w64-mingw32/13.2.0/../../../../x86_64-w64-mingw32/lib/../lib/libkernel32.a(libkernel32s00779.o)
 .bss           0x0000000337539290        0x0 C:/Users/DuyThanh/mingw64/bin/../lib/gcc/x86_64-w64-mingw32/13.2.0/../../../../x86_64-w64-mingw32/lib/../lib/libkernel32.a(libkernel32s00778.o)
 .bss           0x0000000337539290        0x0 C:/Users/DuyThanh/mingw64/bin/../lib/gcc/x86_64-w64-mingw32/13.2.0/../../../../x86_64-w64-mingw32/lib/../lib/libkernel32.a(libkernel32s00766.o)
 .bss           0x0000000337539290        0x0 C:/Users/DuyThanh/mingw64/bin/../lib/gcc/x86_64-w64-mingw32/13.2.0/../../../../x86_64-w64-mingw32/lib/../lib/libkernel32.a(libkernel32s00764.o)
 .bss           0x0000000337539290        0x0 C:/Users/DuyThanh/mingw64/bin/../lib/gcc/x86_64-w64-mingw32/13.2.0/../../../../x86_64-w64-mingw32/lib/../lib/libkernel32.a(libkernel32s00760.o)
 .bss           0x0000000337539290        0x0 C:/Users/DuyThanh/mingw64/bin/../lib/gcc/x86_64-w64-mingw32/13.2.0/../../../../x86_64-w64-mingw32/lib/../lib/libkernel32.a(libkernel32s00743.o)
 .bss           0x0000000337539290        0x0 C:/Users/DuyThanh/mingw64/bin/../lib/gcc/x86_64-w64-mingw32/13.2.0/../../../../x86_64-w64-mingw32/lib/../lib/libkernel32.a(libkernel32s00713.o)
 .bss           0x0000000337539290        0x0 C:/Users/DuyThanh/mingw64/bin/../lib/gcc/x86_64-w64-mingw32/13.2.0/../../../../x86_64-w64-mingw32/lib/../lib/libkernel32.a(libkernel32s00707.o)
 .bss           0x0000000337539290        0x0 C:/Users/DuyThanh/mingw64/bin/../lib/gcc/x86_64-w64-mingw32/13.2.0/../../../../x86_64-w64-mingw32/lib/../lib/libkernel32.a(libkernel32s00627.o)
 .bss           0x0000000337539290        0x0 C:/Users/DuyThanh/mingw64/bin/../lib/gcc/x86_64-w64-mingw32/13.2.0/../../../../x86_64-w64-mingw32/lib/../lib/libkernel32.a(libkernel32s00620.o)
 .bss           0x0000000337539290        0x0 C:/Users/DuyThanh/mingw64/bin/../lib/gcc/x86_64-w64-mingw32/13.2.0/../../../../x86_64-w64-mingw32/lib/../lib/libkernel32.a(libkernel32s00617.o)
 .bss           0x0000000337539290        0x0 C:/Users/DuyThanh/mingw64/bin/../lib/gcc/x86_64-w64-mingw32/13.2.0/../../../../x86_64-w64-mingw32/lib/../lib/libkernel32.a(libkernel32s00609.o)
 .bss           0x0000000337539290        0x0 C:/Users/DuyThanh/mingw64/bin/../lib/gcc/x86_64-w64-mingw32/13.2.0/../../../../x86_64-w64-mingw32/lib/../lib/libkernel32.a(libkernel32s00606.o)
 .bss           0x0000000337539290        0x0 C:/Users/DuyThanh/mingw64/bin/../lib/gcc/x86_64-w64-mingw32/13.2.0/../../../../x86_64-w64-mingw32/lib/../lib/libkernel32.a(libkernel32s00600.o)
 .bss           0x0000000337539290        0x0 C:/Users/DuyThanh/mingw64/bin/../lib/gcc/x86_64-w64-mingw32/13.2.0/../../../../x86_64-w64-mingw32/lib/../lib/libkernel32.a(libkernel32s00597.o)
 .bss           0x0000000337539290        0x0 C:/Users/DuyThanh/mingw64/bin/../lib/gcc/x86_64-w64-mingw32/13.2.0/../../../../x86_64-w64-mingw32/lib/../lib/libkernel32.a(libkernel32s00595.o)
 .bss           0x0000000337539290        0x0 C:/Users/DuyThanh/mingw64/bin/../lib/gcc/x86_64-w64-mingw32/13.2.0/../../../../x86_64-w64-mingw32/lib/../lib/libkernel32.a(libkernel32s00569.o)
 .bss           0x0000000337539290        0x0 C:/Users/DuyThanh/mingw64/bin/../lib/gcc/x86_64-w64-mingw32/13.2.0/../../../../x86_64-w64-mingw32/lib/../lib/libkernel32.a(libkernel32s00566.o)
 .bss           0x0000000337539290        0x0 C:/Users/DuyThanh/mingw64/bin/../lib/gcc/x86_64-w64-mingw32/13.2.0/../../../../x86_64-w64-mingw32/lib/../lib/libkernel32.a(libkernel32s00554.o)
 .bss           0x0000000337539290        0x0 C:/Users/DuyThanh/mingw64/bin/../lib/gcc/x86_64-w64-mingw32/13.2.0/../../../../x86_64-w64-mingw32/lib/../lib/libkernel32.a(libkernel32s00550.o)
 .bss           0x0000000337539290        0x0 C:/Users/DuyThanh/mingw64/bin/../lib/gcc/x86_64-w64-mingw32/13.2.0/../../../../x86_64-w64-mingw32/lib/../lib/libkernel32.a(libkernel32s00549.o)
 .bss           0x0000000337539290        0x0 C:/Users/DuyThanh/mingw64/bin/../lib/gcc/x86_64-w64-mingw32/13.2.0/../../../../x86_64-w64-mingw32/lib/../lib/libkernel32.a(libkernel32s00528.o)
 .bss           0x0000000337539290        0x0 C:/Users/DuyThanh/mingw64/bin/../lib/gcc/x86_64-w64-mingw32/13.2.0/../../../../x86_64-w64-mingw32/lib/../lib/libkernel32.a(libkernel32s00522.o)
 .bss           0x0000000337539290        0x0 C:/Users/DuyThanh/mingw64/bin/../lib/gcc/x86_64-w64-mingw32/13.2.0/../../../../x86_64-w64-mingw32/lib/../lib/libkernel32.a(libkernel32s00440.o)
 .bss           0x0000000337539290        0x0 C:/Users/DuyThanh/mingw64/bin/../lib/gcc/x86_64-w64-mingw32/13.2.0/../../../../x86_64-w64-mingw32/lib/../lib/libkernel32.a(libkernel32s00436.o)
 .bss           0x0000000337539290        0x0 C:/Users/DuyThanh/mingw64/bin/../lib/gcc/x86_64-w64-mingw32/13.2.0/../../../../x86_64-w64-mingw32/lib/../lib/libkernel32.a(libkernel32s00435.o)
 .bss           0x0000000337539290        0x0 C:/Users/DuyThanh/mingw64/bin/../lib/gcc/x86_64-w64-mingw32/13.2.0/../../../../x86_64-w64-mingw32/lib/../lib/libkernel32.a(libkernel32s00431.o)
 .bss           0x0000000337539290        0x0 C:/Users/DuyThanh/mingw64/bin/../lib/gcc/x86_64-w64-mingw32/13.2.0/../../../../x86_64-w64-mingw32/lib/../lib/libkernel32.a(libkernel32s00428.o)
 .bss           0x0000000337539290        0x0 C:/Users/DuyThanh/mingw64/bin/../lib/gcc/x86_64-w64-mingw32/13.2.0/../../../../x86_64-w64-mingw32/lib/../lib/libkernel32.a(libkernel32s00397.o)
 .bss           0x0000000337539290        0x0 C:/Users/DuyThanh/mingw64/bin/../lib/gcc/x86_64-w64-mingw32/13.2.0/../../../../x86_64-w64-mingw32/lib/../lib/libkernel32.a(libkernel32s00386.o)
 .bss           0x0000000337539290        0x0 C:/Users/DuyThanh/mingw64/bin/../lib/gcc/x86_64-w64-mingw32/13.2.0/../../../../x86_64-w64-mingw32/lib/../lib/libkernel32.a(libkernel32s00316.o)
 .bss           0x0000000337539290        0x0 C:/Users/DuyThanh/mingw64/bin/../lib/gcc/x86_64-w64-mingw32/13.2.0/../../../../x86_64-w64-mingw32/lib/../lib/libkernel32.a(libkernel32s00285.o)
 .bss           0x0000000337539290        0x0 C:/Users/DuyThanh/mingw64/bin/../lib/gcc/x86_64-w64-mingw32/13.2.0/../../../../x86_64-w64-mingw32/lib/../lib/libkernel32.a(libkernel32s00282.o)
 .bss           0x0000000337539290        0x0 C:/Users/DuyThanh/mingw64/bin/../lib/gcc/x86_64-w64-mingw32/13.2.0/../../../../x86_64-w64-mingw32/lib/../lib/libkernel32.a(libkernel32s00280.o)
 .bss           0x0000000337539290        0x0 C:/Users/DuyThanh/mingw64/bin/../lib/gcc/x86_64-w64-mingw32/13.2.0/../../../../x86_64-w64-mingw32/lib/../lib/libkernel32.a(libkernel32s00270.o)
 .bss           0x0000000337539290        0x0 C:/Users/DuyThanh/mingw64/bin/../lib/gcc/x86_64-w64-mingw32/13.2.0/../../../../x86_64-w64-mingw32/lib/../lib/libkernel32.a(libkernel32s00226.o)
 .bss           0x0000000337539290        0x0 C:/Users/DuyThanh/mingw64/bin/../lib/gcc/x86_64-w64-mingw32/13.2.0/../../../../x86_64-w64-mingw32/lib/../lib/libkernel32.a(libkernel32s00211.o)
 .bss           0x0000000337539290        0x0 C:/Users/DuyThanh/mingw64/bin/../lib/gcc/x86_64-w64-mingw32/13.2.0/../../../../x86_64-w64-mingw32/lib/../lib/libkernel32.a(libkernel32s00208.o)
 .bss           0x0000000337539290        0x0 C:/Users/DuyThanh/mingw64/bin/../lib/gcc/x86_64-w64-mingw32/13.2.0/../../../../x86_64-w64-mingw32/lib/../lib/libkernel32.a(libkernel32s00203.o)
 .bss           0x0000000337539290        0x0 C:/Users/DuyThanh/mingw64/bin/../lib/gcc/x86_64-w64-mingw32/13.2.0/../../../../x86_64-w64-mingw32/lib/../lib/libkernel32.a(libkernel32s00140.o)
 .bss           0x0000000337539290        0x0 C:/Users/DuyThanh/mingw64/bin/../lib/gcc/x86_64-w64-mingw32/13.2.0/../../../../x86_64-w64-mingw32/lib/../lib/libkernel32.a(libkernel32s00035.o)
 .bss           0x0000000337539290        0x0 C:/Users/DuyThanh/mingw64/bin/../lib/gcc/x86_64-w64-mingw32/13.2.0/../../../../x86_64-w64-mingw32/lib/../lib/libkernel32.a(libkernel32h.o)
 .bss           0x0000000337539290        0x0 C:/Users/DuyThanh/mingw64/bin/../lib/gcc/x86_64-w64-mingw32/13.2.0/../../../../x86_64-w64-mingw32/lib/../lib/libkernel32.a(libkernel32t.o)
 .bss           0x0000000337539290        0x0 C:/Users/DuyThanh/mingw64/bin/../lib/gcc/x86_64-w64-mingw32/13.2.0/crtend.o
 *(COMMON)
                0x0000000337539290                __bss_end__ = .

.edata          0x000000033753a000     0x2800
 *(.edata)
 .edata         0x000000033753a000     0x27cc dll stuff

/DISCARD/
 *(.debug$S)
 *(.debug$T)
 *(.debug$F)
 *(.drectve)
 *(.note.GNU-stack)
 *(.gnu.lto_*)

.idata          0x000000033753d000     0x1800
 SORT_BY_NAME(*)(.idata$2)
 .idata$2       0x000000033753d000       0x14 C:/Users/DuyThanh/mingw64/bin/../lib/gcc/x86_64-w64-mingw32/13.2.0/../../../../x86_64-w64-mingw32/lib/../lib/libkernel32.a(libkernel32h.o)
                0x000000033753d000                _head_lib64_libkernel32_a
 .idata$2       0x000000033753d014       0x14 C:/Users/DuyThanh/mingw64/bin/../lib/gcc/x86_64-w64-mingw32/13.2.0/../../../../x86_64-w64-mingw32/lib/../lib/libmsvcrt.a(libmsvcrt_defh.o)
                0x000000033753d014                _head_lib64_libmsvcrt_def_a
 SORT_BY_NAME(*)(.idata$3)
                0x000000033753d028        0x4 LONG 0x0
                0x000000033753d02c        0x4 LONG 0x0
                0x000000033753d030        0x4 LONG 0x0
                0x000000033753d034        0x4 LONG 0x0
                0x000000033753d038        0x4 LONG 0x0
 SORT_BY_NAME(*)(.idata$4)
 .idata$4       0x000000033753d03c        0x0 C:/Users/DuyThanh/mingw64/bin/../lib/gcc/x86_64-w64-mingw32/13.2.0/../../../../x86_64-w64-mingw32/lib/../lib/libkernel32.a(libkernel32h.o)
 .idata$4       0x000000033753d03c        0x8 C:/Users/DuyThanh/mingw64/bin/../lib/gcc/x86_64-w64-mingw32/13.2.0/../../../../x86_64-w64-mingw32/lib/../lib/libkernel32.a(libkernel32s00035.o)
 .idata$4       0x000000033753d044        0x8 C:/Users/DuyThanh/mingw64/bin/../lib/gcc/x86_64-w64-mingw32/13.2.0/../../../../x86_64-w64-mingw32/lib/../lib/libkernel32.a(libkernel32s00140.o)
 .idata$4       0x000000033753d04c        0x8 C:/Users/DuyThanh/mingw64/bin/../lib/gcc/x86_64-w64-mingw32/13.2.0/../../../../x86_64-w64-mingw32/lib/../lib/libkernel32.a(libkernel32s00203.o)
 .idata$4       0x000000033753d054        0x8 C:/Users/DuyThanh/mingw64/bin/../lib/gcc/x86_64-w64-mingw32/13.2.0/../../../../x86_64-w64-mingw32/lib/../lib/libkernel32.a(libkernel32s00208.o)
 .idata$4       0x000000033753d05c        0x8 C:/Users/DuyThanh/mingw64/bin/../lib/gcc/x86_64-w64-mingw32/13.2.0/../../../../x86_64-w64-mingw32/lib/../lib/libkernel32.a(libkernel32s00211.o)
 .idata$4       0x000000033753d064        0x8 C:/Users/DuyThanh/mingw64/bin/../lib/gcc/x86_64-w64-mingw32/13.2.0/../../../../x86_64-w64-mingw32/lib/../lib/libkernel32.a(libkernel32s00226.o)
 .idata$4       0x000000033753d06c        0x8 C:/Users/DuyThanh/mingw64/bin/../lib/gcc/x86_64-w64-mingw32/13.2.0/../../../../x86_64-w64-mingw32/lib/../lib/libkernel32.a(libkernel32s00270.o)
 .idata$4       0x000000033753d074        0x8 C:/Users/DuyThanh/mingw64/bin/../lib/gcc/x86_64-w64-mingw32/13.2.0/../../../../x86_64-w64-mingw32/lib/../lib/libkernel32.a(libkernel32s00280.o)
 .idata$4       0x000000033753d07c        0x8 C:/Users/DuyThanh/mingw64/bin/../lib/gcc/x86_64-w64-mingw32/13.2.0/../../../../x86_64-w64-mingw32/lib/../lib/libkernel32.a(libkernel32s00282.o)
 .idata$4       0x000000033753d084        0x8 C:/Users/DuyThanh/mingw64/bin/../lib/gcc/x86_64-w64-mingw32/13.2.0/../../../../x86_64-w64-mingw32/lib/../lib/libkernel32.a(libkernel32s00285.o)
 .idata$4       0x000000033753d08c        0x8 C:/Users/DuyThanh/mingw64/bin/../lib/gcc/x86_64-w64-mingw32/13.2.0/../../../../x86_64-w64-mingw32/lib/../lib/libkernel32.a(libkernel32s00316.o)
 .idata$4       0x000000033753d094        0x8 C:/Users/DuyThanh/mingw64/bin/../lib/gcc/x86_64-w64-mingw32/13.2.0/../../../../x86_64-w64-mingw32/lib/../lib/libkernel32.a(libkernel32s00386.o)
 .idata$4       0x000000033753d09c        0x8 C:/Users/DuyThanh/mingw64/bin/../lib/gcc/x86_64-w64-mingw32/13.2.0/../../../../x86_64-w64-mingw32/lib/../lib/libkernel32.a(libkernel32s00397.o)
 .idata$4       0x000000033753d0a4        0x8 C:/Users/DuyThanh/mingw64/bin/../lib/gcc/x86_64-w64-mingw32/13.2.0/../../../../x86_64-w64-mingw32/lib/../lib/libkernel32.a(libkernel32s00428.o)
 .idata$4       0x000000033753d0ac        0x8 C:/Users/DuyThanh/mingw64/bin/../lib/gcc/x86_64-w64-mingw32/13.2.0/../../../../x86_64-w64-mingw32/lib/../lib/libkernel32.a(libkernel32s00431.o)
 .idata$4       0x000000033753d0b4        0x8 C:/Users/DuyThanh/mingw64/bin/../lib/gcc/x86_64-w64-mingw32/13.2.0/../../../../x86_64-w64-mingw32/lib/../lib/libkernel32.a(libkernel32s00435.o)
 .idata$4       0x000000033753d0bc        0x8 C:/Users/DuyThanh/mingw64/bin/../lib/gcc/x86_64-w64-mingw32/13.2.0/../../../../x86_64-w64-mingw32/lib/../lib/libkernel32.a(libkernel32s00436.o)
 .idata$4       0x000000033753d0c4        0x8 C:/Users/DuyThanh/mingw64/bin/../lib/gcc/x86_64-w64-mingw32/13.2.0/../../../../x86_64-w64-mingw32/lib/../lib/libkernel32.a(libkernel32s00440.o)
 .idata$4       0x000000033753d0cc        0x8 C:/Users/DuyThanh/mingw64/bin/../lib/gcc/x86_64-w64-mingw32/13.2.0/../../../../x86_64-w64-mingw32/lib/../lib/libkernel32.a(libkernel32s00522.o)
 .idata$4       0x000000033753d0d4        0x8 C:/Users/DuyThanh/mingw64/bin/../lib/gcc/x86_64-w64-mingw32/13.2.0/../../../../x86_64-w64-mingw32/lib/../lib/libkernel32.a(libkernel32s00528.o)
 .idata$4       0x000000033753d0dc        0x8 C:/Users/DuyThanh/mingw64/bin/../lib/gcc/x86_64-w64-mingw32/13.2.0/../../../../x86_64-w64-mingw32/lib/../lib/libkernel32.a(libkernel32s00549.o)
 .idata$4       0x000000033753d0e4        0x8 C:/Users/DuyThanh/mingw64/bin/../lib/gcc/x86_64-w64-mingw32/13.2.0/../../../../x86_64-w64-mingw32/lib/../lib/libkernel32.a(libkernel32s00550.o)
 .idata$4       0x000000033753d0ec        0x8 C:/Users/DuyThanh/mingw64/bin/../lib/gcc/x86_64-w64-mingw32/13.2.0/../../../../x86_64-w64-mingw32/lib/../lib/libkernel32.a(libkernel32s00554.o)
 .idata$4       0x000000033753d0f4        0x8 C:/Users/DuyThanh/mingw64/bin/../lib/gcc/x86_64-w64-mingw32/13.2.0/../../../../x86_64-w64-mingw32/lib/../lib/libkernel32.a(libkernel32s00566.o)
 .idata$4       0x000000033753d0fc        0x8 C:/Users/DuyThanh/mingw64/bin/../lib/gcc/x86_64-w64-mingw32/13.2.0/../../../../x86_64-w64-mingw32/lib/../lib/libkernel32.a(libkernel32s00569.o)
 .idata$4       0x000000033753d104        0x8 C:/Users/DuyThanh/mingw64/bin/../lib/gcc/x86_64-w64-mingw32/13.2.0/../../../../x86_64-w64-mingw32/lib/../lib/libkernel32.a(libkernel32s00595.o)
 .idata$4       0x000000033753d10c        0x8 C:/Users/DuyThanh/mingw64/bin/../lib/gcc/x86_64-w64-mingw32/13.2.0/../../../../x86_64-w64-mingw32/lib/../lib/libkernel32.a(libkernel32s00597.o)
 .idata$4       0x000000033753d114        0x8 C:/Users/DuyThanh/mingw64/bin/../lib/gcc/x86_64-w64-mingw32/13.2.0/../../../../x86_64-w64-mingw32/lib/../lib/libkernel32.a(libkernel32s00600.o)
 .idata$4       0x000000033753d11c        0x8 C:/Users/DuyThanh/mingw64/bin/../lib/gcc/x86_64-w64-mingw32/13.2.0/../../../../x86_64-w64-mingw32/lib/../lib/libkernel32.a(libkernel32s00606.o)
 .idata$4       0x000000033753d124        0x8 C:/Users/DuyThanh/mingw64/bin/../lib/gcc/x86_64-w64-mingw32/13.2.0/../../../../x86_64-w64-mingw32/lib/../lib/libkernel32.a(libkernel32s00609.o)
 .idata$4       0x000000033753d12c        0x8 C:/Users/DuyThanh/mingw64/bin/../lib/gcc/x86_64-w64-mingw32/13.2.0/../../../../x86_64-w64-mingw32/lib/../lib/libkernel32.a(libkernel32s00617.o)
 .idata$4       0x000000033753d134        0x8 C:/Users/DuyThanh/mingw64/bin/../lib/gcc/x86_64-w64-mingw32/13.2.0/../../../../x86_64-w64-mingw32/lib/../lib/libkernel32.a(libkernel32s00620.o)
 .idata$4       0x000000033753d13c        0x8 C:/Users/DuyThanh/mingw64/bin/../lib/gcc/x86_64-w64-mingw32/13.2.0/../../../../x86_64-w64-mingw32/lib/../lib/libkernel32.a(libkernel32s00627.o)
 .idata$4       0x000000033753d144        0x8 C:/Users/DuyThanh/mingw64/bin/../lib/gcc/x86_64-w64-mingw32/13.2.0/../../../../x86_64-w64-mingw32/lib/../lib/libkernel32.a(libkernel32s00707.o)
 .idata$4       0x000000033753d14c        0x8 C:/Users/DuyThanh/mingw64/bin/../lib/gcc/x86_64-w64-mingw32/13.2.0/../../../../x86_64-w64-mingw32/lib/../lib/libkernel32.a(libkernel32s00713.o)
 .idata$4       0x000000033753d154        0x8 C:/Users/DuyThanh/mingw64/bin/../lib/gcc/x86_64-w64-mingw32/13.2.0/../../../../x86_64-w64-mingw32/lib/../lib/libkernel32.a(libkernel32s00743.o)
 .idata$4       0x000000033753d15c        0x8 C:/Users/DuyThanh/mingw64/bin/../lib/gcc/x86_64-w64-mingw32/13.2.0/../../../../x86_64-w64-mingw32/lib/../lib/libkernel32.a(libkernel32s00760.o)
 .idata$4       0x000000033753d164        0x8 C:/Users/DuyThanh/mingw64/bin/../lib/gcc/x86_64-w64-mingw32/13.2.0/../../../../x86_64-w64-mingw32/lib/../lib/libkernel32.a(libkernel32s00764.o)
 .idata$4       0x000000033753d16c        0x8 C:/Users/DuyThanh/mingw64/bin/../lib/gcc/x86_64-w64-mingw32/13.2.0/../../../../x86_64-w64-mingw32/lib/../lib/libkernel32.a(libkernel32s00766.o)
 .idata$4       0x000000033753d174        0x8 C:/Users/DuyThanh/mingw64/bin/../lib/gcc/x86_64-w64-mingw32/13.2.0/../../../../x86_64-w64-mingw32/lib/../lib/libkernel32.a(libkernel32s00778.o)
 .idata$4       0x000000033753d17c        0x8 C:/Users/DuyThanh/mingw64/bin/../lib/gcc/x86_64-w64-mingw32/13.2.0/../../../../x86_64-w64-mingw32/lib/../lib/libkernel32.a(libkernel32s00779.o)
 .idata$4       0x000000033753d184        0x8 C:/Users/DuyThanh/mingw64/bin/../lib/gcc/x86_64-w64-mingw32/13.2.0/../../../../x86_64-w64-mingw32/lib/../lib/libkernel32.a(libkernel32s00796.o)
 .idata$4       0x000000033753d18c        0x8 C:/Users/DuyThanh/mingw64/bin/../lib/gcc/x86_64-w64-mingw32/13.2.0/../../../../x86_64-w64-mingw32/lib/../lib/libkernel32.a(libkernel32s00860.o)
 .idata$4       0x000000033753d194        0x8 C:/Users/DuyThanh/mingw64/bin/../lib/gcc/x86_64-w64-mingw32/13.2.0/../../../../x86_64-w64-mingw32/lib/../lib/libkernel32.a(libkernel32s00861.o)
 .idata$4       0x000000033753d19c        0x8 C:/Users/DuyThanh/mingw64/bin/../lib/gcc/x86_64-w64-mingw32/13.2.0/../../../../x86_64-w64-mingw32/lib/../lib/libkernel32.a(libkernel32s00862.o)
 .idata$4       0x000000033753d1a4        0x8 C:/Users/DuyThanh/mingw64/bin/../lib/gcc/x86_64-w64-mingw32/13.2.0/../../../../x86_64-w64-mingw32/lib/../lib/libkernel32.a(libkernel32s00864.o)
 .idata$4       0x000000033753d1ac        0x8 C:/Users/DuyThanh/mingw64/bin/../lib/gcc/x86_64-w64-mingw32/13.2.0/../../../../x86_64-w64-mingw32/lib/../lib/libkernel32.a(libkernel32s00866.o)
 .idata$4       0x000000033753d1b4        0x8 C:/Users/DuyThanh/mingw64/bin/../lib/gcc/x86_64-w64-mingw32/13.2.0/../../../../x86_64-w64-mingw32/lib/../lib/libkernel32.a(libkernel32s00870.o)
 .idata$4       0x000000033753d1bc        0x8 C:/Users/DuyThanh/mingw64/bin/../lib/gcc/x86_64-w64-mingw32/13.2.0/../../../../x86_64-w64-mingw32/lib/../lib/libkernel32.a(libkernel32s00872.o)
 .idata$4       0x000000033753d1c4        0x8 C:/Users/DuyThanh/mingw64/bin/../lib/gcc/x86_64-w64-mingw32/13.2.0/../../../../x86_64-w64-mingw32/lib/../lib/libkernel32.a(libkernel32s00876.o)
 .idata$4       0x000000033753d1cc        0x8 C:/Users/DuyThanh/mingw64/bin/../lib/gcc/x86_64-w64-mingw32/13.2.0/../../../../x86_64-w64-mingw32/lib/../lib/libkernel32.a(libkernel32s00889.o)
 .idata$4       0x000000033753d1d4        0x8 C:/Users/DuyThanh/mingw64/bin/../lib/gcc/x86_64-w64-mingw32/13.2.0/../../../../x86_64-w64-mingw32/lib/../lib/libkernel32.a(libkernel32s00916.o)
 .idata$4       0x000000033753d1dc        0x8 C:/Users/DuyThanh/mingw64/bin/../lib/gcc/x86_64-w64-mingw32/13.2.0/../../../../x86_64-w64-mingw32/lib/../lib/libkernel32.a(libkernel32s00981.o)
 .idata$4       0x000000033753d1e4        0x8 C:/Users/DuyThanh/mingw64/bin/../lib/gcc/x86_64-w64-mingw32/13.2.0/../../../../x86_64-w64-mingw32/lib/../lib/libkernel32.a(libkernel32s00985.o)
 .idata$4       0x000000033753d1ec        0x8 C:/Users/DuyThanh/mingw64/bin/../lib/gcc/x86_64-w64-mingw32/13.2.0/../../../../x86_64-w64-mingw32/lib/../lib/libkernel32.a(libkernel32s00988.o)
 .idata$4       0x000000033753d1f4        0x8 C:/Users/DuyThanh/mingw64/bin/../lib/gcc/x86_64-w64-mingw32/13.2.0/../../../../x86_64-w64-mingw32/lib/../lib/libkernel32.a(libkernel32s00999.o)
 .idata$4       0x000000033753d1fc        0x8 C:/Users/DuyThanh/mingw64/bin/../lib/gcc/x86_64-w64-mingw32/13.2.0/../../../../x86_64-w64-mingw32/lib/../lib/libkernel32.a(libkernel32s01011.o)
 .idata$4       0x000000033753d204        0x8 C:/Users/DuyThanh/mingw64/bin/../lib/gcc/x86_64-w64-mingw32/13.2.0/../../../../x86_64-w64-mingw32/lib/../lib/libkernel32.a(libkernel32s01012.o)
 .idata$4       0x000000033753d20c        0x8 C:/Users/DuyThanh/mingw64/bin/../lib/gcc/x86_64-w64-mingw32/13.2.0/../../../../x86_64-w64-mingw32/lib/../lib/libkernel32.a(libkernel32s01016.o)
 .idata$4       0x000000033753d214        0x8 C:/Users/DuyThanh/mingw64/bin/../lib/gcc/x86_64-w64-mingw32/13.2.0/../../../../x86_64-w64-mingw32/lib/../lib/libkernel32.a(libkernel32s01033.o)
 .idata$4       0x000000033753d21c        0x8 C:/Users/DuyThanh/mingw64/bin/../lib/gcc/x86_64-w64-mingw32/13.2.0/../../../../x86_64-w64-mingw32/lib/../lib/libkernel32.a(libkernel32s01075.o)
 .idata$4       0x000000033753d224        0x8 C:/Users/DuyThanh/mingw64/bin/../lib/gcc/x86_64-w64-mingw32/13.2.0/../../../../x86_64-w64-mingw32/lib/../lib/libkernel32.a(libkernel32s01076.o)
 .idata$4       0x000000033753d22c        0x8 C:/Users/DuyThanh/mingw64/bin/../lib/gcc/x86_64-w64-mingw32/13.2.0/../../../../x86_64-w64-mingw32/lib/../lib/libkernel32.a(libkernel32s01128.o)
 .idata$4       0x000000033753d234        0x8 C:/Users/DuyThanh/mingw64/bin/../lib/gcc/x86_64-w64-mingw32/13.2.0/../../../../x86_64-w64-mingw32/lib/../lib/libkernel32.a(libkernel32s01164.o)
 .idata$4       0x000000033753d23c        0x8 C:/Users/DuyThanh/mingw64/bin/../lib/gcc/x86_64-w64-mingw32/13.2.0/../../../../x86_64-w64-mingw32/lib/../lib/libkernel32.a(libkernel32s01167.o)
 .idata$4       0x000000033753d244        0x8 C:/Users/DuyThanh/mingw64/bin/../lib/gcc/x86_64-w64-mingw32/13.2.0/../../../../x86_64-w64-mingw32/lib/../lib/libkernel32.a(libkernel32s01258.o)
 .idata$4       0x000000033753d24c        0x8 C:/Users/DuyThanh/mingw64/bin/../lib/gcc/x86_64-w64-mingw32/13.2.0/../../../../x86_64-w64-mingw32/lib/../lib/libkernel32.a(libkernel32s01274.o)
 .idata$4       0x000000033753d254        0x8 C:/Users/DuyThanh/mingw64/bin/../lib/gcc/x86_64-w64-mingw32/13.2.0/../../../../x86_64-w64-mingw32/lib/../lib/libkernel32.a(libkernel32s01283.o)
 .idata$4       0x000000033753d25c        0x8 C:/Users/DuyThanh/mingw64/bin/../lib/gcc/x86_64-w64-mingw32/13.2.0/../../../../x86_64-w64-mingw32/lib/../lib/libkernel32.a(libkernel32s01290.o)
 .idata$4       0x000000033753d264        0x8 C:/Users/DuyThanh/mingw64/bin/../lib/gcc/x86_64-w64-mingw32/13.2.0/../../../../x86_64-w64-mingw32/lib/../lib/libkernel32.a(libkernel32s01297.o)
 .idata$4       0x000000033753d26c        0x8 C:/Users/DuyThanh/mingw64/bin/../lib/gcc/x86_64-w64-mingw32/13.2.0/../../../../x86_64-w64-mingw32/lib/../lib/libkernel32.a(libkernel32s01316.o)
 .idata$4       0x000000033753d274        0x8 C:/Users/DuyThanh/mingw64/bin/../lib/gcc/x86_64-w64-mingw32/13.2.0/../../../../x86_64-w64-mingw32/lib/../lib/libkernel32.a(libkernel32s01320.o)
 .idata$4       0x000000033753d27c        0x8 C:/Users/DuyThanh/mingw64/bin/../lib/gcc/x86_64-w64-mingw32/13.2.0/../../../../x86_64-w64-mingw32/lib/../lib/libkernel32.a(libkernel32s01406.o)
 .idata$4       0x000000033753d284        0x8 C:/Users/DuyThanh/mingw64/bin/../lib/gcc/x86_64-w64-mingw32/13.2.0/../../../../x86_64-w64-mingw32/lib/../lib/libkernel32.a(libkernel32s01417.o)
 .idata$4       0x000000033753d28c        0x8 C:/Users/DuyThanh/mingw64/bin/../lib/gcc/x86_64-w64-mingw32/13.2.0/../../../../x86_64-w64-mingw32/lib/../lib/libkernel32.a(libkernel32s01441.o)
 .idata$4       0x000000033753d294        0x8 C:/Users/DuyThanh/mingw64/bin/../lib/gcc/x86_64-w64-mingw32/13.2.0/../../../../x86_64-w64-mingw32/lib/../lib/libkernel32.a(libkernel32s01448.o)
 .idata$4       0x000000033753d29c        0x8 C:/Users/DuyThanh/mingw64/bin/../lib/gcc/x86_64-w64-mingw32/13.2.0/../../../../x86_64-w64-mingw32/lib/../lib/libkernel32.a(libkernel32s01456.o)
 .idata$4       0x000000033753d2a4        0x8 C:/Users/DuyThanh/mingw64/bin/../lib/gcc/x86_64-w64-mingw32/13.2.0/../../../../x86_64-w64-mingw32/lib/../lib/libkernel32.a(libkernel32s01457.o)
 .idata$4       0x000000033753d2ac        0x8 C:/Users/DuyThanh/mingw64/bin/../lib/gcc/x86_64-w64-mingw32/13.2.0/../../../../x86_64-w64-mingw32/lib/../lib/libkernel32.a(libkernel32s01458.o)
 .idata$4       0x000000033753d2b4        0x8 C:/Users/DuyThanh/mingw64/bin/../lib/gcc/x86_64-w64-mingw32/13.2.0/../../../../x86_64-w64-mingw32/lib/../lib/libkernel32.a(libkernel32s01488.o)
 .idata$4       0x000000033753d2bc        0x8 C:/Users/DuyThanh/mingw64/bin/../lib/gcc/x86_64-w64-mingw32/13.2.0/../../../../x86_64-w64-mingw32/lib/../lib/libkernel32.a(libkernel32s01490.o)
 .idata$4       0x000000033753d2c4        0x8 C:/Users/DuyThanh/mingw64/bin/../lib/gcc/x86_64-w64-mingw32/13.2.0/../../../../x86_64-w64-mingw32/lib/../lib/libkernel32.a(libkernel32s01499.o)
 .idata$4       0x000000033753d2cc        0x8 C:/Users/DuyThanh/mingw64/bin/../lib/gcc/x86_64-w64-mingw32/13.2.0/../../../../x86_64-w64-mingw32/lib/../lib/libkernel32.a(libkernel32s01500.o)
 .idata$4       0x000000033753d2d4        0x8 C:/Users/DuyThanh/mingw64/bin/../lib/gcc/x86_64-w64-mingw32/13.2.0/../../../../x86_64-w64-mingw32/lib/../lib/libkernel32.a(libkernel32s01543.o)
 .idata$4       0x000000033753d2dc        0x8 C:/Users/DuyThanh/mingw64/bin/../lib/gcc/x86_64-w64-mingw32/13.2.0/../../../../x86_64-w64-mingw32/lib/../lib/libkernel32.a(libkernel32s01562.o)
 .idata$4       0x000000033753d2e4        0x8 C:/Users/DuyThanh/mingw64/bin/../lib/gcc/x86_64-w64-mingw32/13.2.0/../../../../x86_64-w64-mingw32/lib/../lib/libkernel32.a(libkernel32s01563.o)
 .idata$4       0x000000033753d2ec        0x8 C:/Users/DuyThanh/mingw64/bin/../lib/gcc/x86_64-w64-mingw32/13.2.0/../../../../x86_64-w64-mingw32/lib/../lib/libkernel32.a(libkernel32t.o)
 .idata$4       0x000000033753d2f4        0x0 C:/Users/DuyThanh/mingw64/bin/../lib/gcc/x86_64-w64-mingw32/13.2.0/../../../../x86_64-w64-mingw32/lib/../lib/libmsvcrt.a(libmsvcrt_defh.o)
 .idata$4       0x000000033753d2f4        0x8 C:/Users/DuyThanh/mingw64/bin/../lib/gcc/x86_64-w64-mingw32/13.2.0/../../../../x86_64-w64-mingw32/lib/../lib/libmsvcrt.a(libmsvcrt_defs00063.o)
 .idata$4       0x000000033753d2fc        0x8 C:/Users/DuyThanh/mingw64/bin/../lib/gcc/x86_64-w64-mingw32/13.2.0/../../../../x86_64-w64-mingw32/lib/../lib/libmsvcrt.a(libmsvcrt_defs00066.o)
 .idata$4       0x000000033753d304        0x8 C:/Users/DuyThanh/mingw64/bin/../lib/gcc/x86_64-w64-mingw32/13.2.0/../../../../x86_64-w64-mingw32/lib/../lib/libmsvcrt.a(libmsvcrt_defs00083.o)
 .idata$4       0x000000033753d30c        0x8 C:/Users/DuyThanh/mingw64/bin/../lib/gcc/x86_64-w64-mingw32/13.2.0/../../../../x86_64-w64-mingw32/lib/../lib/libmsvcrt.a(libmsvcrt_defs00114.o)
 .idata$4       0x000000033753d314        0x8 C:/Users/DuyThanh/mingw64/bin/../lib/gcc/x86_64-w64-mingw32/13.2.0/../../../../x86_64-w64-mingw32/lib/../lib/libmsvcrt.a(libmsvcrt_defs00124.o)
 .idata$4       0x000000033753d31c        0x8 C:/Users/DuyThanh/mingw64/bin/../lib/gcc/x86_64-w64-mingw32/13.2.0/../../../../x86_64-w64-mingw32/lib/../lib/libmsvcrt.a(libmsvcrt_defs00125.o)
 .idata$4       0x000000033753d324        0x8 C:/Users/DuyThanh/mingw64/bin/../lib/gcc/x86_64-w64-mingw32/13.2.0/../../../../x86_64-w64-mingw32/lib/../lib/libmsvcrt.a(libmsvcrt_defs00140.o)
 .idata$4       0x000000033753d32c        0x8 C:/Users/DuyThanh/mingw64/bin/../lib/gcc/x86_64-w64-mingw32/13.2.0/../../../../x86_64-w64-mingw32/lib/../lib/libmsvcrt.a(libmsvcrt_defs00154.o)
 .idata$4       0x000000033753d334        0x8 C:/Users/DuyThanh/mingw64/bin/../lib/gcc/x86_64-w64-mingw32/13.2.0/../../../../x86_64-w64-mingw32/lib/../lib/libmsvcrt.a(libmsvcrt_defs00202.o)
 .idata$4       0x000000033753d33c        0x8 C:/Users/DuyThanh/mingw64/bin/../lib/gcc/x86_64-w64-mingw32/13.2.0/../../../../x86_64-w64-mingw32/lib/../lib/libmsvcrt.a(libmsvcrt_defs00205.o)
 .idata$4       0x000000033753d344        0x8 C:/Users/DuyThanh/mingw64/bin/../lib/gcc/x86_64-w64-mingw32/13.2.0/../../../../x86_64-w64-mingw32/lib/../lib/libmsvcrt.a(libmsvcrt_defs00224.o)
 .idata$4       0x000000033753d34c        0x8 C:/Users/DuyThanh/mingw64/bin/../lib/gcc/x86_64-w64-mingw32/13.2.0/../../../../x86_64-w64-mingw32/lib/../lib/libmsvcrt.a(libmsvcrt_defs00236.o)
 .idata$4       0x000000033753d354        0x8 C:/Users/DuyThanh/mingw64/bin/../lib/gcc/x86_64-w64-mingw32/13.2.0/../../../../x86_64-w64-mingw32/lib/../lib/libmsvcrt.a(libmsvcrt_defs00237.o)
 .idata$4       0x000000033753d35c        0x8 C:/Users/DuyThanh/mingw64/bin/../lib/gcc/x86_64-w64-mingw32/13.2.0/../../../../x86_64-w64-mingw32/lib/../lib/libmsvcrt.a(libmsvcrt_defs00242.o)
 .idata$4       0x000000033753d364        0x8 C:/Users/DuyThanh/mingw64/bin/../lib/gcc/x86_64-w64-mingw32/13.2.0/../../../../x86_64-w64-mingw32/lib/../lib/libmsvcrt.a(libmsvcrt_defs00245.o)
 .idata$4       0x000000033753d36c        0x8 C:/Users/DuyThanh/mingw64/bin/../lib/gcc/x86_64-w64-mingw32/13.2.0/../../../../x86_64-w64-mingw32/lib/../lib/libmsvcrt.a(libmsvcrt_defs00275.o)
 .idata$4       0x000000033753d374        0x8 C:/Users/DuyThanh/mingw64/bin/../lib/gcc/x86_64-w64-mingw32/13.2.0/../../../../x86_64-w64-mingw32/lib/../lib/libmsvcrt.a(libmsvcrt_defs00282.o)
 .idata$4       0x000000033753d37c        0x8 C:/Users/DuyThanh/mingw64/bin/../lib/gcc/x86_64-w64-mingw32/13.2.0/../../../../x86_64-w64-mingw32/lib/../lib/libmsvcrt.a(libmsvcrt_defs00298.o)
 .idata$4       0x000000033753d384        0x8 C:/Users/DuyThanh/mingw64/bin/../lib/gcc/x86_64-w64-mingw32/13.2.0/../../../../x86_64-w64-mingw32/lib/../lib/libmsvcrt.a(libmsvcrt_defs00314.o)
 .idata$4       0x000000033753d38c        0x8 C:/Users/DuyThanh/mingw64/bin/../lib/gcc/x86_64-w64-mingw32/13.2.0/../../../../x86_64-w64-mingw32/lib/../lib/libmsvcrt.a(libmsvcrt_defs00337.o)
 .idata$4       0x000000033753d394        0x8 C:/Users/DuyThanh/mingw64/bin/../lib/gcc/x86_64-w64-mingw32/13.2.0/../../../../x86_64-w64-mingw32/lib/../lib/libmsvcrt.a(libmsvcrt_defs00342.o)
 .idata$4       0x000000033753d39c        0x8 C:/Users/DuyThanh/mingw64/bin/../lib/gcc/x86_64-w64-mingw32/13.2.0/../../../../x86_64-w64-mingw32/lib/../lib/libmsvcrt.a(libmsvcrt_defs00445.o)
 .idata$4       0x000000033753d3a4        0x8 C:/Users/DuyThanh/mingw64/bin/../lib/gcc/x86_64-w64-mingw32/13.2.0/../../../../x86_64-w64-mingw32/lib/../lib/libmsvcrt.a(libmsvcrt_defs00446.o)
 .idata$4       0x000000033753d3ac        0x8 C:/Users/DuyThanh/mingw64/bin/../lib/gcc/x86_64-w64-mingw32/13.2.0/../../../../x86_64-w64-mingw32/lib/../lib/libmsvcrt.a(libmsvcrt_defs00607.o)
 .idata$4       0x000000033753d3b4        0x8 C:/Users/DuyThanh/mingw64/bin/../lib/gcc/x86_64-w64-mingw32/13.2.0/../../../../x86_64-w64-mingw32/lib/../lib/libmsvcrt.a(libmsvcrt_defs00624.o)
 .idata$4       0x000000033753d3bc        0x8 C:/Users/DuyThanh/mingw64/bin/../lib/gcc/x86_64-w64-mingw32/13.2.0/../../../../x86_64-w64-mingw32/lib/../lib/libmsvcrt.a(libmsvcrt_defs00629.o)
 .idata$4       0x000000033753d3c4        0x8 C:/Users/DuyThanh/mingw64/bin/../lib/gcc/x86_64-w64-mingw32/13.2.0/../../../../x86_64-w64-mingw32/lib/../lib/libmsvcrt.a(libmsvcrt_defs00683.o)
 .idata$4       0x000000033753d3cc        0x8 C:/Users/DuyThanh/mingw64/bin/../lib/gcc/x86_64-w64-mingw32/13.2.0/../../../../x86_64-w64-mingw32/lib/../lib/libmsvcrt.a(libmsvcrt_defs00732.o)
 .idata$4       0x000000033753d3d4        0x8 C:/Users/DuyThanh/mingw64/bin/../lib/gcc/x86_64-w64-mingw32/13.2.0/../../../../x86_64-w64-mingw32/lib/../lib/libmsvcrt.a(libmsvcrt_defs00741.o)
 .idata$4       0x000000033753d3dc        0x8 C:/Users/DuyThanh/mingw64/bin/../lib/gcc/x86_64-w64-mingw32/13.2.0/../../../../x86_64-w64-mingw32/lib/../lib/libmsvcrt.a(libmsvcrt_defs00778.o)
 .idata$4       0x000000033753d3e4        0x8 C:/Users/DuyThanh/mingw64/bin/../lib/gcc/x86_64-w64-mingw32/13.2.0/../../../../x86_64-w64-mingw32/lib/../lib/libmsvcrt.a(libmsvcrt_defs00781.o)
 .idata$4       0x000000033753d3ec        0x8 C:/Users/DuyThanh/mingw64/bin/../lib/gcc/x86_64-w64-mingw32/13.2.0/../../../../x86_64-w64-mingw32/lib/../lib/libmsvcrt.a(libmsvcrt_defs00833.o)
 .idata$4       0x000000033753d3f4        0x8 C:/Users/DuyThanh/mingw64/bin/../lib/gcc/x86_64-w64-mingw32/13.2.0/../../../../x86_64-w64-mingw32/lib/../lib/libmsvcrt.a(libmsvcrt_defs00837.o)
 .idata$4       0x000000033753d3fc        0x8 C:/Users/DuyThanh/mingw64/bin/../lib/gcc/x86_64-w64-mingw32/13.2.0/../../../../x86_64-w64-mingw32/lib/../lib/libmsvcrt.a(libmsvcrt_defs01045.o)
 .idata$4       0x000000033753d404        0x8 C:/Users/DuyThanh/mingw64/bin/../lib/gcc/x86_64-w64-mingw32/13.2.0/../../../../x86_64-w64-mingw32/lib/../lib/libmsvcrt.a(libmsvcrt_defs01054.o)
 .idata$4       0x000000033753d40c        0x8 C:/Users/DuyThanh/mingw64/bin/../lib/gcc/x86_64-w64-mingw32/13.2.0/../../../../x86_64-w64-mingw32/lib/../lib/libmsvcrt.a(libmsvcrt_defs01067.o)
 .idata$4       0x000000033753d414        0x8 C:/Users/DuyThanh/mingw64/bin/../lib/gcc/x86_64-w64-mingw32/13.2.0/../../../../x86_64-w64-mingw32/lib/../lib/libmsvcrt.a(libmsvcrt_defs01071.o)
 .idata$4       0x000000033753d41c        0x8 C:/Users/DuyThanh/mingw64/bin/../lib/gcc/x86_64-w64-mingw32/13.2.0/../../../../x86_64-w64-mingw32/lib/../lib/libmsvcrt.a(libmsvcrt_defs01085.o)
 .idata$4       0x000000033753d424        0x8 C:/Users/DuyThanh/mingw64/bin/../lib/gcc/x86_64-w64-mingw32/13.2.0/../../../../x86_64-w64-mingw32/lib/../lib/libmsvcrt.a(libmsvcrt_defs01089.o)
 .idata$4       0x000000033753d42c        0x8 C:/Users/DuyThanh/mingw64/bin/../lib/gcc/x86_64-w64-mingw32/13.2.0/../../../../x86_64-w64-mingw32/lib/../lib/libmsvcrt.a(libmsvcrt_defs01092.o)
 .idata$4       0x000000033753d434        0x8 C:/Users/DuyThanh/mingw64/bin/../lib/gcc/x86_64-w64-mingw32/13.2.0/../../../../x86_64-w64-mingw32/lib/../lib/libmsvcrt.a(libmsvcrt_defs01093.o)
 .idata$4       0x000000033753d43c        0x8 C:/Users/DuyThanh/mingw64/bin/../lib/gcc/x86_64-w64-mingw32/13.2.0/../../../../x86_64-w64-mingw32/lib/../lib/libmsvcrt.a(libmsvcrt_defs01095.o)
 .idata$4       0x000000033753d444        0x8 C:/Users/DuyThanh/mingw64/bin/../lib/gcc/x86_64-w64-mingw32/13.2.0/../../../../x86_64-w64-mingw32/lib/../lib/libmsvcrt.a(libmsvcrt_defs01102.o)
 .idata$4       0x000000033753d44c        0x8 C:/Users/DuyThanh/mingw64/bin/../lib/gcc/x86_64-w64-mingw32/13.2.0/../../../../x86_64-w64-mingw32/lib/../lib/libmsvcrt.a(libmsvcrt_defs01107.o)
 .idata$4       0x000000033753d454        0x8 C:/Users/DuyThanh/mingw64/bin/../lib/gcc/x86_64-w64-mingw32/13.2.0/../../../../x86_64-w64-mingw32/lib/../lib/libmsvcrt.a(libmsvcrt_defs01108.o)
 .idata$4       0x000000033753d45c        0x8 C:/Users/DuyThanh/mingw64/bin/../lib/gcc/x86_64-w64-mingw32/13.2.0/../../../../x86_64-w64-mingw32/lib/../lib/libmsvcrt.a(libmsvcrt_defs01111.o)
 .idata$4       0x000000033753d464        0x8 C:/Users/DuyThanh/mingw64/bin/../lib/gcc/x86_64-w64-mingw32/13.2.0/../../../../x86_64-w64-mingw32/lib/../lib/libmsvcrt.a(libmsvcrt_defs01112.o)
 .idata$4       0x000000033753d46c        0x8 C:/Users/DuyThanh/mingw64/bin/../lib/gcc/x86_64-w64-mingw32/13.2.0/../../../../x86_64-w64-mingw32/lib/../lib/libmsvcrt.a(libmsvcrt_defs01121.o)
 .idata$4       0x000000033753d474        0x8 C:/Users/DuyThanh/mingw64/bin/../lib/gcc/x86_64-w64-mingw32/13.2.0/../../../../x86_64-w64-mingw32/lib/../lib/libmsvcrt.a(libmsvcrt_defs01122.o)
 .idata$4       0x000000033753d47c        0x8 C:/Users/DuyThanh/mingw64/bin/../lib/gcc/x86_64-w64-mingw32/13.2.0/../../../../x86_64-w64-mingw32/lib/../lib/libmsvcrt.a(libmsvcrt_defs01125.o)
 .idata$4       0x000000033753d484        0x8 C:/Users/DuyThanh/mingw64/bin/../lib/gcc/x86_64-w64-mingw32/13.2.0/../../../../x86_64-w64-mingw32/lib/../lib/libmsvcrt.a(libmsvcrt_defs01129.o)
 .idata$4       0x000000033753d48c        0x8 C:/Users/DuyThanh/mingw64/bin/../lib/gcc/x86_64-w64-mingw32/13.2.0/../../../../x86_64-w64-mingw32/lib/../lib/libmsvcrt.a(libmsvcrt_defs01131.o)
 .idata$4       0x000000033753d494        0x8 C:/Users/DuyThanh/mingw64/bin/../lib/gcc/x86_64-w64-mingw32/13.2.0/../../../../x86_64-w64-mingw32/lib/../lib/libmsvcrt.a(libmsvcrt_defs01138.o)
 .idata$4       0x000000033753d49c        0x8 C:/Users/DuyThanh/mingw64/bin/../lib/gcc/x86_64-w64-mingw32/13.2.0/../../../../x86_64-w64-mingw32/lib/../lib/libmsvcrt.a(libmsvcrt_defs01139.o)
 .idata$4       0x000000033753d4a4        0x8 C:/Users/DuyThanh/mingw64/bin/../lib/gcc/x86_64-w64-mingw32/13.2.0/../../../../x86_64-w64-mingw32/lib/../lib/libmsvcrt.a(libmsvcrt_defs01145.o)
 .idata$4       0x000000033753d4ac        0x8 C:/Users/DuyThanh/mingw64/bin/../lib/gcc/x86_64-w64-mingw32/13.2.0/../../../../x86_64-w64-mingw32/lib/../lib/libmsvcrt.a(libmsvcrt_defs01147.o)
 .idata$4       0x000000033753d4b4        0x8 C:/Users/DuyThanh/mingw64/bin/../lib/gcc/x86_64-w64-mingw32/13.2.0/../../../../x86_64-w64-mingw32/lib/../lib/libmsvcrt.a(libmsvcrt_defs01162.o)
 .idata$4       0x000000033753d4bc        0x8 C:/Users/DuyThanh/mingw64/bin/../lib/gcc/x86_64-w64-mingw32/13.2.0/../../../../x86_64-w64-mingw32/lib/../lib/libmsvcrt.a(libmsvcrt_defs01166.o)
 .idata$4       0x000000033753d4c4        0x8 C:/Users/DuyThanh/mingw64/bin/../lib/gcc/x86_64-w64-mingw32/13.2.0/../../../../x86_64-w64-mingw32/lib/../lib/libmsvcrt.a(libmsvcrt_defs01173.o)
 .idata$4       0x000000033753d4cc        0x8 C:/Users/DuyThanh/mingw64/bin/../lib/gcc/x86_64-w64-mingw32/13.2.0/../../../../x86_64-w64-mingw32/lib/../lib/libmsvcrt.a(libmsvcrt_defs01181.o)
 .idata$4       0x000000033753d4d4        0x8 C:/Users/DuyThanh/mingw64/bin/../lib/gcc/x86_64-w64-mingw32/13.2.0/../../../../x86_64-w64-mingw32/lib/../lib/libmsvcrt.a(libmsvcrt_defs01182.o)
 .idata$4       0x000000033753d4dc        0x8 C:/Users/DuyThanh/mingw64/bin/../lib/gcc/x86_64-w64-mingw32/13.2.0/../../../../x86_64-w64-mingw32/lib/../lib/libmsvcrt.a(libmsvcrt_defs01183.o)
 .idata$4       0x000000033753d4e4        0x8 C:/Users/DuyThanh/mingw64/bin/../lib/gcc/x86_64-w64-mingw32/13.2.0/../../../../x86_64-w64-mingw32/lib/../lib/libmsvcrt.a(libmsvcrt_defs01184.o)
 .idata$4       0x000000033753d4ec        0x8 C:/Users/DuyThanh/mingw64/bin/../lib/gcc/x86_64-w64-mingw32/13.2.0/../../../../x86_64-w64-mingw32/lib/../lib/libmsvcrt.a(libmsvcrt_defs01185.o)
 .idata$4       0x000000033753d4f4        0x8 C:/Users/DuyThanh/mingw64/bin/../lib/gcc/x86_64-w64-mingw32/13.2.0/../../../../x86_64-w64-mingw32/lib/../lib/libmsvcrt.a(libmsvcrt_defs01203.o)
 .idata$4       0x000000033753d4fc        0x8 C:/Users/DuyThanh/mingw64/bin/../lib/gcc/x86_64-w64-mingw32/13.2.0/../../../../x86_64-w64-mingw32/lib/../lib/libmsvcrt.a(libmsvcrt_defs01206.o)
 .idata$4       0x000000033753d504        0x8 C:/Users/DuyThanh/mingw64/bin/../lib/gcc/x86_64-w64-mingw32/13.2.0/../../../../x86_64-w64-mingw32/lib/../lib/libmsvcrt.a(libmsvcrt_defs01212.o)
 .idata$4       0x000000033753d50c        0x8 C:/Users/DuyThanh/mingw64/bin/../lib/gcc/x86_64-w64-mingw32/13.2.0/../../../../x86_64-w64-mingw32/lib/../lib/libmsvcrt.a(libmsvcrt_defs01228.o)
 .idata$4       0x000000033753d514        0x8 C:/Users/DuyThanh/mingw64/bin/../lib/gcc/x86_64-w64-mingw32/13.2.0/../../../../x86_64-w64-mingw32/lib/../lib/libmsvcrt.a(libmsvcrt_defs01229.o)
 .idata$4       0x000000033753d51c        0x8 C:/Users/DuyThanh/mingw64/bin/../lib/gcc/x86_64-w64-mingw32/13.2.0/../../../../x86_64-w64-mingw32/lib/../lib/libmsvcrt.a(libmsvcrt_defs01231.o)
 .idata$4       0x000000033753d524        0x8 C:/Users/DuyThanh/mingw64/bin/../lib/gcc/x86_64-w64-mingw32/13.2.0/../../../../x86_64-w64-mingw32/lib/../lib/libmsvcrt.a(libmsvcrt_defs01233.o)
 .idata$4       0x000000033753d52c        0x8 C:/Users/DuyThanh/mingw64/bin/../lib/gcc/x86_64-w64-mingw32/13.2.0/../../../../x86_64-w64-mingw32/lib/../lib/libmsvcrt.a(libmsvcrt_defs01234.o)
 .idata$4       0x000000033753d534        0x8 C:/Users/DuyThanh/mingw64/bin/../lib/gcc/x86_64-w64-mingw32/13.2.0/../../../../x86_64-w64-mingw32/lib/../lib/libmsvcrt.a(libmsvcrt_defs01236.o)
 .idata$4       0x000000033753d53c        0x8 C:/Users/DuyThanh/mingw64/bin/../lib/gcc/x86_64-w64-mingw32/13.2.0/../../../../x86_64-w64-mingw32/lib/../lib/libmsvcrt.a(libmsvcrt_defs01239.o)
 .idata$4       0x000000033753d544        0x8 C:/Users/DuyThanh/mingw64/bin/../lib/gcc/x86_64-w64-mingw32/13.2.0/../../../../x86_64-w64-mingw32/lib/../lib/libmsvcrt.a(libmsvcrt_defs01240.o)
 .idata$4       0x000000033753d54c        0x8 C:/Users/DuyThanh/mingw64/bin/../lib/gcc/x86_64-w64-mingw32/13.2.0/../../../../x86_64-w64-mingw32/lib/../lib/libmsvcrt.a(libmsvcrt_defs01243.o)
 .idata$4       0x000000033753d554        0x8 C:/Users/DuyThanh/mingw64/bin/../lib/gcc/x86_64-w64-mingw32/13.2.0/../../../../x86_64-w64-mingw32/lib/../lib/libmsvcrt.a(libmsvcrt_defs01244.o)
 .idata$4       0x000000033753d55c        0x8 C:/Users/DuyThanh/mingw64/bin/../lib/gcc/x86_64-w64-mingw32/13.2.0/../../../../x86_64-w64-mingw32/lib/../lib/libmsvcrt.a(libmsvcrt_defs01245.o)
 .idata$4       0x000000033753d564        0x8 C:/Users/DuyThanh/mingw64/bin/../lib/gcc/x86_64-w64-mingw32/13.2.0/../../../../x86_64-w64-mingw32/lib/../lib/libmsvcrt.a(libmsvcrt_defs01249.o)
 .idata$4       0x000000033753d56c        0x8 C:/Users/DuyThanh/mingw64/bin/../lib/gcc/x86_64-w64-mingw32/13.2.0/../../../../x86_64-w64-mingw32/lib/../lib/libmsvcrt.a(libmsvcrt_defs01250.o)
 .idata$4       0x000000033753d574        0x8 C:/Users/DuyThanh/mingw64/bin/../lib/gcc/x86_64-w64-mingw32/13.2.0/../../../../x86_64-w64-mingw32/lib/../lib/libmsvcrt.a(libmsvcrt_defs01259.o)
 .idata$4       0x000000033753d57c        0x8 C:/Users/DuyThanh/mingw64/bin/../lib/gcc/x86_64-w64-mingw32/13.2.0/../../../../x86_64-w64-mingw32/lib/../lib/libmsvcrt.a(libmsvcrt_defs01267.o)
 .idata$4       0x000000033753d584        0x8 C:/Users/DuyThanh/mingw64/bin/../lib/gcc/x86_64-w64-mingw32/13.2.0/../../../../x86_64-w64-mingw32/lib/../lib/libmsvcrt.a(libmsvcrt_defs01273.o)
 .idata$4       0x000000033753d58c        0x8 C:/Users/DuyThanh/mingw64/bin/../lib/gcc/x86_64-w64-mingw32/13.2.0/../../../../x86_64-w64-mingw32/lib/../lib/libmsvcrt.a(libmsvcrt_defs01274.o)
 .idata$4       0x000000033753d594        0x8 C:/Users/DuyThanh/mingw64/bin/../lib/gcc/x86_64-w64-mingw32/13.2.0/../../../../x86_64-w64-mingw32/lib/../lib/libmsvcrt.a(libmsvcrt_defs01300.o)
 .idata$4       0x000000033753d59c        0x8 C:/Users/DuyThanh/mingw64/bin/../lib/gcc/x86_64-w64-mingw32/13.2.0/../../../../x86_64-w64-mingw32/lib/../lib/libmsvcrt.a(libmsvcrt_deft.o)
                0x000000033753d5a4                __IAT_start__ = .
 SORT_BY_NAME(*)(.idata$5)
 .idata$5       0x000000033753d5a4        0x0 C:/Users/DuyThanh/mingw64/bin/../lib/gcc/x86_64-w64-mingw32/13.2.0/../../../../x86_64-w64-mingw32/lib/../lib/libkernel32.a(libkernel32h.o)
 .idata$5       0x000000033753d5a4        0x8 C:/Users/DuyThanh/mingw64/bin/../lib/gcc/x86_64-w64-mingw32/13.2.0/../../../../x86_64-w64-mingw32/lib/../lib/libkernel32.a(libkernel32s00035.o)
                0x000000033753d5a4                __imp_AreFileApisANSI
 .idata$5       0x000000033753d5ac        0x8 C:/Users/DuyThanh/mingw64/bin/../lib/gcc/x86_64-w64-mingw32/13.2.0/../../../../x86_64-w64-mingw32/lib/../lib/libkernel32.a(libkernel32s00140.o)
                0x000000033753d5ac                __imp_CloseHandle
 .idata$5       0x000000033753d5b4        0x8 C:/Users/DuyThanh/mingw64/bin/../lib/gcc/x86_64-w64-mingw32/13.2.0/../../../../x86_64-w64-mingw32/lib/../lib/libkernel32.a(libkernel32s00203.o)
                0x000000033753d5b4                __imp_CreateFileA
 .idata$5       0x000000033753d5bc        0x8 C:/Users/DuyThanh/mingw64/bin/../lib/gcc/x86_64-w64-mingw32/13.2.0/../../../../x86_64-w64-mingw32/lib/../lib/libkernel32.a(libkernel32s00208.o)
                0x000000033753d5bc                __imp_CreateFileMappingW
 .idata$5       0x000000033753d5c4        0x8 C:/Users/DuyThanh/mingw64/bin/../lib/gcc/x86_64-w64-mingw32/13.2.0/../../../../x86_64-w64-mingw32/lib/../lib/libkernel32.a(libkernel32s00211.o)
                0x000000033753d5c4                __imp_CreateFileW
 .idata$5       0x000000033753d5cc        0x8 C:/Users/DuyThanh/mingw64/bin/../lib/gcc/x86_64-w64-mingw32/13.2.0/../../../../x86_64-w64-mingw32/lib/../lib/libkernel32.a(libkernel32s00226.o)
                0x000000033753d5cc                __imp_CreateMutexW
 .idata$5       0x000000033753d5d4        0x8 C:/Users/DuyThanh/mingw64/bin/../lib/gcc/x86_64-w64-mingw32/13.2.0/../../../../x86_64-w64-mingw32/lib/../lib/libkernel32.a(libkernel32s00270.o)
                0x000000033753d5d4                __imp_DebugBreak
 .idata$5       0x000000033753d5dc        0x8 C:/Users/DuyThanh/mingw64/bin/../lib/gcc/x86_64-w64-mingw32/13.2.0/../../../../x86_64-w64-mingw32/lib/../lib/libkernel32.a(libkernel32s00280.o)
                0x000000033753d5dc                __imp_DeleteCriticalSection
 .idata$5       0x000000033753d5e4        0x8 C:/Users/DuyThanh/mingw64/bin/../lib/gcc/x86_64-w64-mingw32/13.2.0/../../../../x86_64-w64-mingw32/lib/../lib/libkernel32.a(libkernel32s00282.o)
                0x000000033753d5e4                __imp_DeleteFileA
 .idata$5       0x000000033753d5ec        0x8 C:/Users/DuyThanh/mingw64/bin/../lib/gcc/x86_64-w64-mingw32/13.2.0/../../../../x86_64-w64-mingw32/lib/../lib/libkernel32.a(libkernel32s00285.o)
                0x000000033753d5ec                __imp_DeleteFileW
 .idata$5       0x000000033753d5f4        0x8 C:/Users/DuyThanh/mingw64/bin/../lib/gcc/x86_64-w64-mingw32/13.2.0/../../../../x86_64-w64-mingw32/lib/../lib/libkernel32.a(libkernel32s00316.o)
                0x000000033753d5f4                __imp_EnterCriticalSection
 .idata$5       0x000000033753d5fc        0x8 C:/Users/DuyThanh/mingw64/bin/../lib/gcc/x86_64-w64-mingw32/13.2.0/../../../../x86_64-w64-mingw32/lib/../lib/libkernel32.a(libkernel32s00386.o)
                0x000000033753d5fc                __imp_FindClose
 .idata$5       0x000000033753d604        0x8 C:/Users/DuyThanh/mingw64/bin/../lib/gcc/x86_64-w64-mingw32/13.2.0/../../../../x86_64-w64-mingw32/lib/../lib/libkernel32.a(libkernel32s00397.o)
                0x000000033753d604                __imp_FindFirstFileW
 .idata$5       0x000000033753d60c        0x8 C:/Users/DuyThanh/mingw64/bin/../lib/gcc/x86_64-w64-mingw32/13.2.0/../../../../x86_64-w64-mingw32/lib/../lib/libkernel32.a(libkernel32s00428.o)
                0x000000033753d60c                __imp_FlushFileBuffers
 .idata$5       0x000000033753d614        0x8 C:/Users/DuyThanh/mingw64/bin/../lib/gcc/x86_64-w64-mingw32/13.2.0/../../../../x86_64-w64-mingw32/lib/../lib/libkernel32.a(libkernel32s00431.o)
                0x000000033753d614                __imp_FlushViewOfFile
 .idata$5       0x000000033753d61c        0x8 C:/Users/DuyThanh/mingw64/bin/../lib/gcc/x86_64-w64-mingw32/13.2.0/../../../../x86_64-w64-mingw32/lib/../lib/libkernel32.a(libkernel32s00435.o)
                0x000000033753d61c                __imp_FormatMessageA
 .idata$5       0x000000033753d624        0x8 C:/Users/DuyThanh/mingw64/bin/../lib/gcc/x86_64-w64-mingw32/13.2.0/../../../../x86_64-w64-mingw32/lib/../lib/libkernel32.a(libkernel32s00436.o)
                0x000000033753d624                __imp_FormatMessageW
 .idata$5       0x000000033753d62c        0x8 C:/Users/DuyThanh/mingw64/bin/../lib/gcc/x86_64-w64-mingw32/13.2.0/../../../../x86_64-w64-mingw32/lib/../lib/libkernel32.a(libkernel32s00440.o)
                0x000000033753d62c                __imp_FreeLibrary
 .idata$5       0x000000033753d634        0x8 C:/Users/DuyThanh/mingw64/bin/../lib/gcc/x86_64-w64-mingw32/13.2.0/../../../../x86_64-w64-mingw32/lib/../lib/libkernel32.a(libkernel32s00522.o)
                0x000000033753d634                __imp_GetConsoleMode
 .idata$5       0x000000033753d63c        0x8 C:/Users/DuyThanh/mingw64/bin/../lib/gcc/x86_64-w64-mingw32/13.2.0/../../../../x86_64-w64-mingw32/lib/../lib/libkernel32.a(libkernel32s00528.o)
                0x000000033753d63c                __imp_GetConsoleScreenBufferInfo
 .idata$5       0x000000033753d644        0x8 C:/Users/DuyThanh/mingw64/bin/../lib/gcc/x86_64-w64-mingw32/13.2.0/../../../../x86_64-w64-mingw32/lib/../lib/libkernel32.a(libkernel32s00549.o)
                0x000000033753d644                __imp_GetCurrentProcess
 .idata$5       0x000000033753d64c        0x8 C:/Users/DuyThanh/mingw64/bin/../lib/gcc/x86_64-w64-mingw32/13.2.0/../../../../x86_64-w64-mingw32/lib/../lib/libkernel32.a(libkernel32s00550.o)
                0x000000033753d64c                __imp_GetCurrentProcessId
 .idata$5       0x000000033753d654        0x8 C:/Users/DuyThanh/mingw64/bin/../lib/gcc/x86_64-w64-mingw32/13.2.0/../../../../x86_64-w64-mingw32/lib/../lib/libkernel32.a(libkernel32s00554.o)
                0x000000033753d654                __imp_GetCurrentThreadId
 .idata$5       0x000000033753d65c        0x8 C:/Users/DuyThanh/mingw64/bin/../lib/gcc/x86_64-w64-mingw32/13.2.0/../../../../x86_64-w64-mingw32/lib/../lib/libkernel32.a(libkernel32s00566.o)
                0x000000033753d65c                __imp_GetDiskFreeSpaceA
 .idata$5       0x000000033753d664        0x8 C:/Users/DuyThanh/mingw64/bin/../lib/gcc/x86_64-w64-mingw32/13.2.0/../../../../x86_64-w64-mingw32/lib/../lib/libkernel32.a(libkernel32s00569.o)
                0x000000033753d664                __imp_GetDiskFreeSpaceW
 .idata$5       0x000000033753d66c        0x8 C:/Users/DuyThanh/mingw64/bin/../lib/gcc/x86_64-w64-mingw32/13.2.0/../../../../x86_64-w64-mingw32/lib/../lib/libkernel32.a(libkernel32s00595.o)
                0x000000033753d66c                __imp_GetFileAttributesA
 .idata$5       0x000000033753d674        0x8 C:/Users/DuyThanh/mingw64/bin/../lib/gcc/x86_64-w64-mingw32/13.2.0/../../../../x86_64-w64-mingw32/lib/../lib/libkernel32.a(libkernel32s00597.o)
                0x000000033753d674                __imp_GetFileAttributesExW
 .idata$5       0x000000033753d67c        0x8 C:/Users/DuyThanh/mingw64/bin/../lib/gcc/x86_64-w64-mingw32/13.2.0/../../../../x86_64-w64-mingw32/lib/../lib/libkernel32.a(libkernel32s00600.o)
                0x000000033753d67c                __imp_GetFileAttributesW
 .idata$5       0x000000033753d684        0x8 C:/Users/DuyThanh/mingw64/bin/../lib/gcc/x86_64-w64-mingw32/13.2.0/../../../../x86_64-w64-mingw32/lib/../lib/libkernel32.a(libkernel32s00606.o)
                0x000000033753d684                __imp_GetFileSize
 .idata$5       0x000000033753d68c        0x8 C:/Users/DuyThanh/mingw64/bin/../lib/gcc/x86_64-w64-mingw32/13.2.0/../../../../x86_64-w64-mingw32/lib/../lib/libkernel32.a(libkernel32s00609.o)
                0x000000033753d68c                __imp_GetFileType
 .idata$5       0x000000033753d694        0x8 C:/Users/DuyThanh/mingw64/bin/../lib/gcc/x86_64-w64-mingw32/13.2.0/../../../../x86_64-w64-mingw32/lib/../lib/libkernel32.a(libkernel32s00617.o)
                0x000000033753d694                __imp_GetFullPathNameA
 .idata$5       0x000000033753d69c        0x8 C:/Users/DuyThanh/mingw64/bin/../lib/gcc/x86_64-w64-mingw32/13.2.0/../../../../x86_64-w64-mingw32/lib/../lib/libkernel32.a(libkernel32s00620.o)
                0x000000033753d69c                __imp_GetFullPathNameW
 .idata$5       0x000000033753d6a4        0x8 C:/Users/DuyThanh/mingw64/bin/../lib/gcc/x86_64-w64-mingw32/13.2.0/../../../../x86_64-w64-mingw32/lib/../lib/libkernel32.a(libkernel32s00627.o)
                0x000000033753d6a4                __imp_GetLastError
 .idata$5       0x000000033753d6ac        0x8 C:/Users/DuyThanh/mingw64/bin/../lib/gcc/x86_64-w64-mingw32/13.2.0/../../../../x86_64-w64-mingw32/lib/../lib/libkernel32.a(libkernel32s00707.o)
                0x000000033753d6ac                __imp_GetProcAddress
 .idata$5       0x000000033753d6b4        0x8 C:/Users/DuyThanh/mingw64/bin/../lib/gcc/x86_64-w64-mingw32/13.2.0/../../../../x86_64-w64-mingw32/lib/../lib/libkernel32.a(libkernel32s00713.o)
                0x000000033753d6b4                __imp_GetProcessHeap
 .idata$5       0x000000033753d6bc        0x8 C:/Users/DuyThanh/mingw64/bin/../lib/gcc/x86_64-w64-mingw32/13.2.0/../../../../x86_64-w64-mingw32/lib/../lib/libkernel32.a(libkernel32s00743.o)
                0x000000033753d6bc                __imp_GetStdHandle
 .idata$5       0x000000033753d6c4        0x8 C:/Users/DuyThanh/mingw64/bin/../lib/gcc/x86_64-w64-mingw32/13.2.0/../../../../x86_64-w64-mingw32/lib/../lib/libkernel32.a(libkernel32s00760.o)
                0x000000033753d6c4                __imp_GetSystemInfo
 .idata$5       0x000000033753d6cc        0x8 C:/Users/DuyThanh/mingw64/bin/../lib/gcc/x86_64-w64-mingw32/13.2.0/../../../../x86_64-w64-mingw32/lib/../lib/libkernel32.a(libkernel32s00764.o)
                0x000000033753d6cc                __imp_GetSystemTime
 .idata$5       0x000000033753d6d4        0x8 C:/Users/DuyThanh/mingw64/bin/../lib/gcc/x86_64-w64-mingw32/13.2.0/../../../../x86_64-w64-mingw32/lib/../lib/libkernel32.a(libkernel32s00766.o)
                0x000000033753d6d4                __imp_GetSystemTimeAsFileTime
 .idata$5       0x000000033753d6dc        0x8 C:/Users/DuyThanh/mingw64/bin/../lib/gcc/x86_64-w64-mingw32/13.2.0/../../../../x86_64-w64-mingw32/lib/../lib/libkernel32.a(libkernel32s00778.o)
                0x000000033753d6dc                __imp_GetTempPathA
 .idata$5       0x000000033753d6e4        0x8 C:/Users/DuyThanh/mingw64/bin/../lib/gcc/x86_64-w64-mingw32/13.2.0/../../../../x86_64-w64-mingw32/lib/../lib/libkernel32.a(libkernel32s00779.o)
                0x000000033753d6e4                __imp_GetTempPathW
 .idata$5       0x000000033753d6ec        0x8 C:/Users/DuyThanh/mingw64/bin/../lib/gcc/x86_64-w64-mingw32/13.2.0/../../../../x86_64-w64-mingw32/lib/../lib/libkernel32.a(libkernel32s00796.o)
                0x000000033753d6ec                __imp_GetTickCount
 .idata$5       0x000000033753d6f4        0x8 C:/Users/DuyThanh/mingw64/bin/../lib/gcc/x86_64-w64-mingw32/13.2.0/../../../../x86_64-w64-mingw32/lib/../lib/libkernel32.a(libkernel32s00860.o)
                0x000000033753d6f4                __imp_HeapAlloc
 .idata$5       0x000000033753d6fc        0x8 C:/Users/DuyThanh/mingw64/bin/../lib/gcc/x86_64-w64-mingw32/13.2.0/../../../../x86_64-w64-mingw32/lib/../lib/libkernel32.a(libkernel32s00861.o)
                0x000000033753d6fc                __imp_HeapCompact
 .idata$5       0x000000033753d704        0x8 C:/Users/DuyThanh/mingw64/bin/../lib/gcc/x86_64-w64-mingw32/13.2.0/../../../../x86_64-w64-mingw32/lib/../lib/libkernel32.a(libkernel32s00862.o)
                0x000000033753d704                __imp_HeapCreate
 .idata$5       0x000000033753d70c        0x8 C:/Users/DuyThanh/mingw64/bin/../lib/gcc/x86_64-w64-mingw32/13.2.0/../../../../x86_64-w64-mingw32/lib/../lib/libkernel32.a(libkernel32s00864.o)
                0x000000033753d70c                __imp_HeapDestroy
 .idata$5       0x000000033753d714        0x8 C:/Users/DuyThanh/mingw64/bin/../lib/gcc/x86_64-w64-mingw32/13.2.0/../../../../x86_64-w64-mingw32/lib/../lib/libkernel32.a(libkernel32s00866.o)
                0x000000033753d714                __imp_HeapFree
 .idata$5       0x000000033753d71c        0x8 C:/Users/DuyThanh/mingw64/bin/../lib/gcc/x86_64-w64-mingw32/13.2.0/../../../../x86_64-w64-mingw32/lib/../lib/libkernel32.a(libkernel32s00870.o)
                0x000000033753d71c                __imp_HeapReAlloc
 .idata$5       0x000000033753d724        0x8 C:/Users/DuyThanh/mingw64/bin/../lib/gcc/x86_64-w64-mingw32/13.2.0/../../../../x86_64-w64-mingw32/lib/../lib/libkernel32.a(libkernel32s00872.o)
                0x000000033753d724                __imp_HeapSize
 .idata$5       0x000000033753d72c        0x8 C:/Users/DuyThanh/mingw64/bin/../lib/gcc/x86_64-w64-mingw32/13.2.0/../../../../x86_64-w64-mingw32/lib/../lib/libkernel32.a(libkernel32s00876.o)
                0x000000033753d72c                __imp_HeapValidate
 .idata$5       0x000000033753d734        0x8 C:/Users/DuyThanh/mingw64/bin/../lib/gcc/x86_64-w64-mingw32/13.2.0/../../../../x86_64-w64-mingw32/lib/../lib/libkernel32.a(libkernel32s00889.o)
                0x000000033753d734                __imp_InitializeCriticalSection
 .idata$5       0x000000033753d73c        0x8 C:/Users/DuyThanh/mingw64/bin/../lib/gcc/x86_64-w64-mingw32/13.2.0/../../../../x86_64-w64-mingw32/lib/../lib/libkernel32.a(libkernel32s00916.o)
                0x000000033753d73c                __imp_IsDBCSLeadByteEx
 .idata$5       0x000000033753d744        0x8 C:/Users/DuyThanh/mingw64/bin/../lib/gcc/x86_64-w64-mingw32/13.2.0/../../../../x86_64-w64-mingw32/lib/../lib/libkernel32.a(libkernel32s00981.o)
                0x000000033753d744                __imp_LeaveCriticalSection
 .idata$5       0x000000033753d74c        0x8 C:/Users/DuyThanh/mingw64/bin/../lib/gcc/x86_64-w64-mingw32/13.2.0/../../../../x86_64-w64-mingw32/lib/../lib/libkernel32.a(libkernel32s00985.o)
                0x000000033753d74c                __imp_LoadLibraryA
 .idata$5       0x000000033753d754        0x8 C:/Users/DuyThanh/mingw64/bin/../lib/gcc/x86_64-w64-mingw32/13.2.0/../../../../x86_64-w64-mingw32/lib/../lib/libkernel32.a(libkernel32s00988.o)
                0x000000033753d754                __imp_LoadLibraryW
 .idata$5       0x000000033753d75c        0x8 C:/Users/DuyThanh/mingw64/bin/../lib/gcc/x86_64-w64-mingw32/13.2.0/../../../../x86_64-w64-mingw32/lib/../lib/libkernel32.a(libkernel32s00999.o)
                0x000000033753d75c                __imp_LocalFree
 .idata$5       0x000000033753d764        0x8 C:/Users/DuyThanh/mingw64/bin/../lib/gcc/x86_64-w64-mingw32/13.2.0/../../../../x86_64-w64-mingw32/lib/../lib/libkernel32.a(libkernel32s01011.o)
                0x000000033753d764                __imp_LockFile
 .idata$5       0x000000033753d76c        0x8 C:/Users/DuyThanh/mingw64/bin/../lib/gcc/x86_64-w64-mingw32/13.2.0/../../../../x86_64-w64-mingw32/lib/../lib/libkernel32.a(libkernel32s01012.o)
                0x000000033753d76c                __imp_LockFileEx
 .idata$5       0x000000033753d774        0x8 C:/Users/DuyThanh/mingw64/bin/../lib/gcc/x86_64-w64-mingw32/13.2.0/../../../../x86_64-w64-mingw32/lib/../lib/libkernel32.a(libkernel32s01016.o)
                0x000000033753d774                __imp_MapViewOfFile
 .idata$5       0x000000033753d77c        0x8 C:/Users/DuyThanh/mingw64/bin/../lib/gcc/x86_64-w64-mingw32/13.2.0/../../../../x86_64-w64-mingw32/lib/../lib/libkernel32.a(libkernel32s01033.o)
                0x000000033753d77c                __imp_MultiByteToWideChar
 .idata$5       0x000000033753d784        0x8 C:/Users/DuyThanh/mingw64/bin/../lib/gcc/x86_64-w64-mingw32/13.2.0/../../../../x86_64-w64-mingw32/lib/../lib/libkernel32.a(libkernel32s01075.o)
                0x000000033753d784                __imp_OutputDebugStringA
 .idata$5       0x000000033753d78c        0x8 C:/Users/DuyThanh/mingw64/bin/../lib/gcc/x86_64-w64-mingw32/13.2.0/../../../../x86_64-w64-mingw32/lib/../lib/libkernel32.a(libkernel32s01076.o)
                0x000000033753d78c                __imp_OutputDebugStringW
 .idata$5       0x000000033753d794        0x8 C:/Users/DuyThanh/mingw64/bin/../lib/gcc/x86_64-w64-mingw32/13.2.0/../../../../x86_64-w64-mingw32/lib/../lib/libkernel32.a(libkernel32s01128.o)
                0x000000033753d794                __imp_QueryPerformanceCounter
 .idata$5       0x000000033753d79c        0x8 C:/Users/DuyThanh/mingw64/bin/../lib/gcc/x86_64-w64-mingw32/13.2.0/../../../../x86_64-w64-mingw32/lib/../lib/libkernel32.a(libkernel32s01164.o)
                0x000000033753d79c                __imp_ReadConsoleW
 .idata$5       0x000000033753d7a4        0x8 C:/Users/DuyThanh/mingw64/bin/../lib/gcc/x86_64-w64-mingw32/13.2.0/../../../../x86_64-w64-mingw32/lib/../lib/libkernel32.a(libkernel32s01167.o)
                0x000000033753d7a4                __imp_ReadFile
 .idata$5       0x000000033753d7ac        0x8 C:/Users/DuyThanh/mingw64/bin/../lib/gcc/x86_64-w64-mingw32/13.2.0/../../../../x86_64-w64-mingw32/lib/../lib/libkernel32.a(libkernel32s01258.o)
                0x000000033753d7ac                __imp_SetConsoleCtrlHandler
 .idata$5       0x000000033753d7b4        0x8 C:/Users/DuyThanh/mingw64/bin/../lib/gcc/x86_64-w64-mingw32/13.2.0/../../../../x86_64-w64-mingw32/lib/../lib/libkernel32.a(libkernel32s01274.o)
                0x000000033753d7b4                __imp_SetConsoleMode
 .idata$5       0x000000033753d7bc        0x8 C:/Users/DuyThanh/mingw64/bin/../lib/gcc/x86_64-w64-mingw32/13.2.0/../../../../x86_64-w64-mingw32/lib/../lib/libkernel32.a(libkernel32s01283.o)
                0x000000033753d7bc                __imp_SetConsoleTextAttribute
 .idata$5       0x000000033753d7c4        0x8 C:/Users/DuyThanh/mingw64/bin/../lib/gcc/x86_64-w64-mingw32/13.2.0/../../../../x86_64-w64-mingw32/lib/../lib/libkernel32.a(libkernel32s01290.o)
                0x000000033753d7c4                __imp_SetCurrentDirectoryW
 .idata$5       0x000000033753d7cc        0x8 C:/Users/DuyThanh/mingw64/bin/../lib/gcc/x86_64-w64-mingw32/13.2.0/../../../../x86_64-w64-mingw32/lib/../lib/libkernel32.a(libkernel32s01297.o)
                0x000000033753d7cc                __imp_SetEndOfFile
 .idata$5       0x000000033753d7d4        0x8 C:/Users/DuyThanh/mingw64/bin/../lib/gcc/x86_64-w64-mingw32/13.2.0/../../../../x86_64-w64-mingw32/lib/../lib/libkernel32.a(libkernel32s01316.o)
                0x000000033753d7d4                __imp_SetFilePointer
 .idata$5       0x000000033753d7dc        0x8 C:/Users/DuyThanh/mingw64/bin/../lib/gcc/x86_64-w64-mingw32/13.2.0/../../../../x86_64-w64-mingw32/lib/../lib/libkernel32.a(libkernel32s01320.o)
                0x000000033753d7dc                __imp_SetFileTime
 .idata$5       0x000000033753d7e4        0x8 C:/Users/DuyThanh/mingw64/bin/../lib/gcc/x86_64-w64-mingw32/13.2.0/../../../../x86_64-w64-mingw32/lib/../lib/libkernel32.a(libkernel32s01406.o)
                0x000000033753d7e4                __imp_Sleep
 .idata$5       0x000000033753d7ec        0x8 C:/Users/DuyThanh/mingw64/bin/../lib/gcc/x86_64-w64-mingw32/13.2.0/../../../../x86_64-w64-mingw32/lib/../lib/libkernel32.a(libkernel32s01417.o)
                0x000000033753d7ec                __imp_SystemTimeToFileTime
 .idata$5       0x000000033753d7f4        0x8 C:/Users/DuyThanh/mingw64/bin/../lib/gcc/x86_64-w64-mingw32/13.2.0/../../../../x86_64-w64-mingw32/lib/../lib/libkernel32.a(libkernel32s01441.o)
                0x000000033753d7f4                __imp_TlsGetValue
 .idata$5       0x000000033753d7fc        0x8 C:/Users/DuyThanh/mingw64/bin/../lib/gcc/x86_64-w64-mingw32/13.2.0/../../../../x86_64-w64-mingw32/lib/../lib/libkernel32.a(libkernel32s01448.o)
                0x000000033753d7fc                __imp_TryEnterCriticalSection
 .idata$5       0x000000033753d804        0x8 C:/Users/DuyThanh/mingw64/bin/../lib/gcc/x86_64-w64-mingw32/13.2.0/../../../../x86_64-w64-mingw32/lib/../lib/libkernel32.a(libkernel32s01456.o)
                0x000000033753d804                __imp_UnlockFile
 .idata$5       0x000000033753d80c        0x8 C:/Users/DuyThanh/mingw64/bin/../lib/gcc/x86_64-w64-mingw32/13.2.0/../../../../x86_64-w64-mingw32/lib/../lib/libkernel32.a(libkernel32s01457.o)
                0x000000033753d80c                __imp_UnlockFileEx
 .idata$5       0x000000033753d814        0x8 C:/Users/DuyThanh/mingw64/bin/../lib/gcc/x86_64-w64-mingw32/13.2.0/../../../../x86_64-w64-mingw32/lib/../lib/libkernel32.a(libkernel32s01458.o)
                0x000000033753d814                __imp_UnmapViewOfFile
 .idata$5       0x000000033753d81c        0x8 C:/Users/DuyThanh/mingw64/bin/../lib/gcc/x86_64-w64-mingw32/13.2.0/../../../../x86_64-w64-mingw32/lib/../lib/libkernel32.a(libkernel32s01488.o)
                0x000000033753d81c                __imp_VirtualProtect
 .idata$5       0x000000033753d824        0x8 C:/Users/DuyThanh/mingw64/bin/../lib/gcc/x86_64-w64-mingw32/13.2.0/../../../../x86_64-w64-mingw32/lib/../lib/libkernel32.a(libkernel32s01490.o)
                0x000000033753d824                __imp_VirtualQuery
 .idata$5       0x000000033753d82c        0x8 C:/Users/DuyThanh/mingw64/bin/../lib/gcc/x86_64-w64-mingw32/13.2.0/../../../../x86_64-w64-mingw32/lib/../lib/libkernel32.a(libkernel32s01499.o)
                0x000000033753d82c                __imp_WaitForSingleObject
 .idata$5       0x000000033753d834        0x8 C:/Users/DuyThanh/mingw64/bin/../lib/gcc/x86_64-w64-mingw32/13.2.0/../../../../x86_64-w64-mingw32/lib/../lib/libkernel32.a(libkernel32s01500.o)
                0x000000033753d834                __imp_WaitForSingleObjectEx
 .idata$5       0x000000033753d83c        0x8 C:/Users/DuyThanh/mingw64/bin/../lib/gcc/x86_64-w64-mingw32/13.2.0/../../../../x86_64-w64-mingw32/lib/../lib/libkernel32.a(libkernel32s01543.o)
                0x000000033753d83c                __imp_WideCharToMultiByte
 .idata$5       0x000000033753d844        0x8 C:/Users/DuyThanh/mingw64/bin/../lib/gcc/x86_64-w64-mingw32/13.2.0/../../../../x86_64-w64-mingw32/lib/../lib/libkernel32.a(libkernel32s01562.o)
                0x000000033753d844                __imp_WriteConsoleW
 .idata$5       0x000000033753d84c        0x8 C:/Users/DuyThanh/mingw64/bin/../lib/gcc/x86_64-w64-mingw32/13.2.0/../../../../x86_64-w64-mingw32/lib/../lib/libkernel32.a(libkernel32s01563.o)
                0x000000033753d84c                __imp_WriteFile
 .idata$5       0x000000033753d854        0x8 C:/Users/DuyThanh/mingw64/bin/../lib/gcc/x86_64-w64-mingw32/13.2.0/../../../../x86_64-w64-mingw32/lib/../lib/libkernel32.a(libkernel32t.o)
 .idata$5       0x000000033753d85c        0x0 C:/Users/DuyThanh/mingw64/bin/../lib/gcc/x86_64-w64-mingw32/13.2.0/../../../../x86_64-w64-mingw32/lib/../lib/libmsvcrt.a(libmsvcrt_defh.o)
 .idata$5       0x000000033753d85c        0x8 C:/Users/DuyThanh/mingw64/bin/../lib/gcc/x86_64-w64-mingw32/13.2.0/../../../../x86_64-w64-mingw32/lib/../lib/libmsvcrt.a(libmsvcrt_defs00063.o)
                0x000000033753d85c                __imp____lc_codepage_func
 .idata$5       0x000000033753d864        0x8 C:/Users/DuyThanh/mingw64/bin/../lib/gcc/x86_64-w64-mingw32/13.2.0/../../../../x86_64-w64-mingw32/lib/../lib/libmsvcrt.a(libmsvcrt_defs00066.o)
                0x000000033753d864                __imp____mb_cur_max_func
 .idata$5       0x000000033753d86c        0x8 C:/Users/DuyThanh/mingw64/bin/../lib/gcc/x86_64-w64-mingw32/13.2.0/../../../../x86_64-w64-mingw32/lib/../lib/libmsvcrt.a(libmsvcrt_defs00083.o)
                0x000000033753d86c                __imp___iob_func
 .idata$5       0x000000033753d874        0x8 C:/Users/DuyThanh/mingw64/bin/../lib/gcc/x86_64-w64-mingw32/13.2.0/../../../../x86_64-w64-mingw32/lib/../lib/libmsvcrt.a(libmsvcrt_defs00114.o)
                0x000000033753d874                __imp__access
 .idata$5       0x000000033753d87c        0x8 C:/Users/DuyThanh/mingw64/bin/../lib/gcc/x86_64-w64-mingw32/13.2.0/../../../../x86_64-w64-mingw32/lib/../lib/libmsvcrt.a(libmsvcrt_defs00124.o)
                0x000000033753d87c                __imp__amsg_exit
 .idata$5       0x000000033753d884        0x8 C:/Users/DuyThanh/mingw64/bin/../lib/gcc/x86_64-w64-mingw32/13.2.0/../../../../x86_64-w64-mingw32/lib/../lib/libmsvcrt.a(libmsvcrt_defs00125.o)
                0x000000033753d884                __imp__assert
 .idata$5       0x000000033753d88c        0x8 C:/Users/DuyThanh/mingw64/bin/../lib/gcc/x86_64-w64-mingw32/13.2.0/../../../../x86_64-w64-mingw32/lib/../lib/libmsvcrt.a(libmsvcrt_defs00140.o)
                0x000000033753d88c                __imp__beginthreadex
 .idata$5       0x000000033753d894        0x8 C:/Users/DuyThanh/mingw64/bin/../lib/gcc/x86_64-w64-mingw32/13.2.0/../../../../x86_64-w64-mingw32/lib/../lib/libmsvcrt.a(libmsvcrt_defs00154.o)
                0x000000033753d894                __imp__chmod
 .idata$5       0x000000033753d89c        0x8 C:/Users/DuyThanh/mingw64/bin/../lib/gcc/x86_64-w64-mingw32/13.2.0/../../../../x86_64-w64-mingw32/lib/../lib/libmsvcrt.a(libmsvcrt_defs00202.o)
                0x000000033753d89c                __imp__endthreadex
 .idata$5       0x000000033753d8a4        0x8 C:/Users/DuyThanh/mingw64/bin/../lib/gcc/x86_64-w64-mingw32/13.2.0/../../../../x86_64-w64-mingw32/lib/../lib/libmsvcrt.a(libmsvcrt_defs00205.o)
                0x000000033753d8a4                __imp__errno
 .idata$5       0x000000033753d8ac        0x8 C:/Users/DuyThanh/mingw64/bin/../lib/gcc/x86_64-w64-mingw32/13.2.0/../../../../x86_64-w64-mingw32/lib/../lib/libmsvcrt.a(libmsvcrt_defs00224.o)
                0x000000033753d8ac                __imp__exit
 .idata$5       0x000000033753d8b4        0x8 C:/Users/DuyThanh/mingw64/bin/../lib/gcc/x86_64-w64-mingw32/13.2.0/../../../../x86_64-w64-mingw32/lib/../lib/libmsvcrt.a(libmsvcrt_defs00236.o)
                0x000000033753d8b4                __imp__fileno
 .idata$5       0x000000033753d8bc        0x8 C:/Users/DuyThanh/mingw64/bin/../lib/gcc/x86_64-w64-mingw32/13.2.0/../../../../x86_64-w64-mingw32/lib/../lib/libmsvcrt.a(libmsvcrt_defs00237.o)
                0x000000033753d8bc                __imp__findclose
 .idata$5       0x000000033753d8c4        0x8 C:/Users/DuyThanh/mingw64/bin/../lib/gcc/x86_64-w64-mingw32/13.2.0/../../../../x86_64-w64-mingw32/lib/../lib/libmsvcrt.a(libmsvcrt_defs00242.o)
                0x000000033753d8c4                __imp__findfirst64
 .idata$5       0x000000033753d8cc        0x8 C:/Users/DuyThanh/mingw64/bin/../lib/gcc/x86_64-w64-mingw32/13.2.0/../../../../x86_64-w64-mingw32/lib/../lib/libmsvcrt.a(libmsvcrt_defs00245.o)
                0x000000033753d8cc                __imp__findnext64
 .idata$5       0x000000033753d8d4        0x8 C:/Users/DuyThanh/mingw64/bin/../lib/gcc/x86_64-w64-mingw32/13.2.0/../../../../x86_64-w64-mingw32/lib/../lib/libmsvcrt.a(libmsvcrt_defs00275.o)
                0x000000033753d8d4                __imp__fstat64
 .idata$5       0x000000033753d8dc        0x8 C:/Users/DuyThanh/mingw64/bin/../lib/gcc/x86_64-w64-mingw32/13.2.0/../../../../x86_64-w64-mingw32/lib/../lib/libmsvcrt.a(libmsvcrt_defs00282.o)
                0x000000033753d8dc                __imp__fullpath
 .idata$5       0x000000033753d8e4        0x8 C:/Users/DuyThanh/mingw64/bin/../lib/gcc/x86_64-w64-mingw32/13.2.0/../../../../x86_64-w64-mingw32/lib/../lib/libmsvcrt.a(libmsvcrt_defs00298.o)
                0x000000033753d8e4                __imp__get_osfhandle
 .idata$5       0x000000033753d8ec        0x8 C:/Users/DuyThanh/mingw64/bin/../lib/gcc/x86_64-w64-mingw32/13.2.0/../../../../x86_64-w64-mingw32/lib/../lib/libmsvcrt.a(libmsvcrt_defs00314.o)
                0x000000033753d8ec                __imp_getpid
 .idata$5       0x000000033753d8f4        0x8 C:/Users/DuyThanh/mingw64/bin/../lib/gcc/x86_64-w64-mingw32/13.2.0/../../../../x86_64-w64-mingw32/lib/../lib/libmsvcrt.a(libmsvcrt_defs00337.o)
                0x000000033753d8f4                __imp__initterm
 .idata$5       0x000000033753d8fc        0x8 C:/Users/DuyThanh/mingw64/bin/../lib/gcc/x86_64-w64-mingw32/13.2.0/../../../../x86_64-w64-mingw32/lib/../lib/libmsvcrt.a(libmsvcrt_defs00342.o)
                0x000000033753d8fc                __imp__isatty
 .idata$5       0x000000033753d904        0x8 C:/Users/DuyThanh/mingw64/bin/../lib/gcc/x86_64-w64-mingw32/13.2.0/../../../../x86_64-w64-mingw32/lib/../lib/libmsvcrt.a(libmsvcrt_defs00445.o)
                0x000000033753d904                __imp__localtime64
 .idata$5       0x000000033753d90c        0x8 C:/Users/DuyThanh/mingw64/bin/../lib/gcc/x86_64-w64-mingw32/13.2.0/../../../../x86_64-w64-mingw32/lib/../lib/libmsvcrt.a(libmsvcrt_defs00446.o)
                0x000000033753d90c                __imp__lock
 .idata$5       0x000000033753d914        0x8 C:/Users/DuyThanh/mingw64/bin/../lib/gcc/x86_64-w64-mingw32/13.2.0/../../../../x86_64-w64-mingw32/lib/../lib/libmsvcrt.a(libmsvcrt_defs00607.o)
                0x000000033753d914                __imp__mkdir
 .idata$5       0x000000033753d91c        0x8 C:/Users/DuyThanh/mingw64/bin/../lib/gcc/x86_64-w64-mingw32/13.2.0/../../../../x86_64-w64-mingw32/lib/../lib/libmsvcrt.a(libmsvcrt_defs00624.o)
                0x000000033753d91c                __imp__pclose
 .idata$5       0x000000033753d924        0x8 C:/Users/DuyThanh/mingw64/bin/../lib/gcc/x86_64-w64-mingw32/13.2.0/../../../../x86_64-w64-mingw32/lib/../lib/libmsvcrt.a(libmsvcrt_defs00629.o)
                0x000000033753d924                __imp__popen
 .idata$5       0x000000033753d92c        0x8 C:/Users/DuyThanh/mingw64/bin/../lib/gcc/x86_64-w64-mingw32/13.2.0/../../../../x86_64-w64-mingw32/lib/../lib/libmsvcrt.a(libmsvcrt_defs00683.o)
                0x000000033753d92c                __imp__setmode
 .idata$5       0x000000033753d934        0x8 C:/Users/DuyThanh/mingw64/bin/../lib/gcc/x86_64-w64-mingw32/13.2.0/../../../../x86_64-w64-mingw32/lib/../lib/libmsvcrt.a(libmsvcrt_defs00732.o)
                0x000000033753d934                __imp__stat64
 .idata$5       0x000000033753d93c        0x8 C:/Users/DuyThanh/mingw64/bin/../lib/gcc/x86_64-w64-mingw32/13.2.0/../../../../x86_64-w64-mingw32/lib/../lib/libmsvcrt.a(libmsvcrt_defs00741.o)
                0x000000033753d93c                __imp__strdup
 .idata$5       0x000000033753d944        0x8 C:/Users/DuyThanh/mingw64/bin/../lib/gcc/x86_64-w64-mingw32/13.2.0/../../../../x86_64-w64-mingw32/lib/../lib/libmsvcrt.a(libmsvcrt_defs00778.o)
                0x000000033753d944                __imp_strtoll
 .idata$5       0x000000033753d94c        0x8 C:/Users/DuyThanh/mingw64/bin/../lib/gcc/x86_64-w64-mingw32/13.2.0/../../../../x86_64-w64-mingw32/lib/../lib/libmsvcrt.a(libmsvcrt_defs00781.o)
                0x000000033753d94c                __imp_strtoull
 .idata$5       0x000000033753d954        0x8 C:/Users/DuyThanh/mingw64/bin/../lib/gcc/x86_64-w64-mingw32/13.2.0/../../../../x86_64-w64-mingw32/lib/../lib/libmsvcrt.a(libmsvcrt_defs00833.o)
                0x000000033753d954                __imp__unlink
 .idata$5       0x000000033753d95c        0x8 C:/Users/DuyThanh/mingw64/bin/../lib/gcc/x86_64-w64-mingw32/13.2.0/../../../../x86_64-w64-mingw32/lib/../lib/libmsvcrt.a(libmsvcrt_defs00837.o)
                0x000000033753d95c                __imp__unlock
 .idata$5       0x000000033753d964        0x8 C:/Users/DuyThanh/mingw64/bin/../lib/gcc/x86_64-w64-mingw32/13.2.0/../../../../x86_64-w64-mingw32/lib/../lib/libmsvcrt.a(libmsvcrt_defs01045.o)
                0x000000033753d964                __imp__wunlink
 .idata$5       0x000000033753d96c        0x8 C:/Users/DuyThanh/mingw64/bin/../lib/gcc/x86_64-w64-mingw32/13.2.0/../../../../x86_64-w64-mingw32/lib/../lib/libmsvcrt.a(libmsvcrt_defs01054.o)
                0x000000033753d96c                __imp_abort
 .idata$5       0x000000033753d974        0x8 C:/Users/DuyThanh/mingw64/bin/../lib/gcc/x86_64-w64-mingw32/13.2.0/../../../../x86_64-w64-mingw32/lib/../lib/libmsvcrt.a(libmsvcrt_defs01067.o)
                0x000000033753d974                __imp_atoi
 .idata$5       0x000000033753d97c        0x8 C:/Users/DuyThanh/mingw64/bin/../lib/gcc/x86_64-w64-mingw32/13.2.0/../../../../x86_64-w64-mingw32/lib/../lib/libmsvcrt.a(libmsvcrt_defs01071.o)
                0x000000033753d97c                __imp_calloc
 .idata$5       0x000000033753d984        0x8 C:/Users/DuyThanh/mingw64/bin/../lib/gcc/x86_64-w64-mingw32/13.2.0/../../../../x86_64-w64-mingw32/lib/../lib/libmsvcrt.a(libmsvcrt_defs01085.o)
                0x000000033753d984                __imp_exit
 .idata$5       0x000000033753d98c        0x8 C:/Users/DuyThanh/mingw64/bin/../lib/gcc/x86_64-w64-mingw32/13.2.0/../../../../x86_64-w64-mingw32/lib/../lib/libmsvcrt.a(libmsvcrt_defs01089.o)
                0x000000033753d98c                __imp_fclose
 .idata$5       0x000000033753d994        0x8 C:/Users/DuyThanh/mingw64/bin/../lib/gcc/x86_64-w64-mingw32/13.2.0/../../../../x86_64-w64-mingw32/lib/../lib/libmsvcrt.a(libmsvcrt_defs01092.o)
                0x000000033753d994                __imp_fflush
 .idata$5       0x000000033753d99c        0x8 C:/Users/DuyThanh/mingw64/bin/../lib/gcc/x86_64-w64-mingw32/13.2.0/../../../../x86_64-w64-mingw32/lib/../lib/libmsvcrt.a(libmsvcrt_defs01093.o)
                0x000000033753d99c                __imp_fgetc
 .idata$5       0x000000033753d9a4        0x8 C:/Users/DuyThanh/mingw64/bin/../lib/gcc/x86_64-w64-mingw32/13.2.0/../../../../x86_64-w64-mingw32/lib/../lib/libmsvcrt.a(libmsvcrt_defs01095.o)
                0x000000033753d9a4                __imp_fgets
 .idata$5       0x000000033753d9ac        0x8 C:/Users/DuyThanh/mingw64/bin/../lib/gcc/x86_64-w64-mingw32/13.2.0/../../../../x86_64-w64-mingw32/lib/../lib/libmsvcrt.a(libmsvcrt_defs01102.o)
                0x000000033753d9ac                __imp_fopen
 .idata$5       0x000000033753d9b4        0x8 C:/Users/DuyThanh/mingw64/bin/../lib/gcc/x86_64-w64-mingw32/13.2.0/../../../../x86_64-w64-mingw32/lib/../lib/libmsvcrt.a(libmsvcrt_defs01107.o)
                0x000000033753d9b4                __imp_fputc
 .idata$5       0x000000033753d9bc        0x8 C:/Users/DuyThanh/mingw64/bin/../lib/gcc/x86_64-w64-mingw32/13.2.0/../../../../x86_64-w64-mingw32/lib/../lib/libmsvcrt.a(libmsvcrt_defs01108.o)
                0x000000033753d9bc                __imp_fputs
 .idata$5       0x000000033753d9c4        0x8 C:/Users/DuyThanh/mingw64/bin/../lib/gcc/x86_64-w64-mingw32/13.2.0/../../../../x86_64-w64-mingw32/lib/../lib/libmsvcrt.a(libmsvcrt_defs01111.o)
                0x000000033753d9c4                __imp_fread
 .idata$5       0x000000033753d9cc        0x8 C:/Users/DuyThanh/mingw64/bin/../lib/gcc/x86_64-w64-mingw32/13.2.0/../../../../x86_64-w64-mingw32/lib/../lib/libmsvcrt.a(libmsvcrt_defs01112.o)
                0x000000033753d9cc                __imp_free
 .idata$5       0x000000033753d9d4        0x8 C:/Users/DuyThanh/mingw64/bin/../lib/gcc/x86_64-w64-mingw32/13.2.0/../../../../x86_64-w64-mingw32/lib/../lib/libmsvcrt.a(libmsvcrt_defs01121.o)
                0x000000033753d9d4                __imp_fseek
 .idata$5       0x000000033753d9dc        0x8 C:/Users/DuyThanh/mingw64/bin/../lib/gcc/x86_64-w64-mingw32/13.2.0/../../../../x86_64-w64-mingw32/lib/../lib/libmsvcrt.a(libmsvcrt_defs01122.o)
                0x000000033753d9dc                __imp_ftell
 .idata$5       0x000000033753d9e4        0x8 C:/Users/DuyThanh/mingw64/bin/../lib/gcc/x86_64-w64-mingw32/13.2.0/../../../../x86_64-w64-mingw32/lib/../lib/libmsvcrt.a(libmsvcrt_defs01125.o)
                0x000000033753d9e4                __imp_fwrite
 .idata$5       0x000000033753d9ec        0x8 C:/Users/DuyThanh/mingw64/bin/../lib/gcc/x86_64-w64-mingw32/13.2.0/../../../../x86_64-w64-mingw32/lib/../lib/libmsvcrt.a(libmsvcrt_defs01129.o)
                0x000000033753d9ec                __imp_getc
 .idata$5       0x000000033753d9f4        0x8 C:/Users/DuyThanh/mingw64/bin/../lib/gcc/x86_64-w64-mingw32/13.2.0/../../../../x86_64-w64-mingw32/lib/../lib/libmsvcrt.a(libmsvcrt_defs01131.o)
                0x000000033753d9f4                __imp_getenv
 .idata$5       0x000000033753d9fc        0x8 C:/Users/DuyThanh/mingw64/bin/../lib/gcc/x86_64-w64-mingw32/13.2.0/../../../../x86_64-w64-mingw32/lib/../lib/libmsvcrt.a(libmsvcrt_defs01138.o)
                0x000000033753d9fc                __imp_isalnum
 .idata$5       0x000000033753da04        0x8 C:/Users/DuyThanh/mingw64/bin/../lib/gcc/x86_64-w64-mingw32/13.2.0/../../../../x86_64-w64-mingw32/lib/../lib/libmsvcrt.a(libmsvcrt_defs01139.o)
                0x000000033753da04                __imp_isalpha
 .idata$5       0x000000033753da0c        0x8 C:/Users/DuyThanh/mingw64/bin/../lib/gcc/x86_64-w64-mingw32/13.2.0/../../../../x86_64-w64-mingw32/lib/../lib/libmsvcrt.a(libmsvcrt_defs01145.o)
                0x000000033753da0c                __imp_isprint
 .idata$5       0x000000033753da14        0x8 C:/Users/DuyThanh/mingw64/bin/../lib/gcc/x86_64-w64-mingw32/13.2.0/../../../../x86_64-w64-mingw32/lib/../lib/libmsvcrt.a(libmsvcrt_defs01147.o)
                0x000000033753da14                __imp_isspace
 .idata$5       0x000000033753da1c        0x8 C:/Users/DuyThanh/mingw64/bin/../lib/gcc/x86_64-w64-mingw32/13.2.0/../../../../x86_64-w64-mingw32/lib/../lib/libmsvcrt.a(libmsvcrt_defs01162.o)
                0x000000033753da1c                __imp_isxdigit
 .idata$5       0x000000033753da24        0x8 C:/Users/DuyThanh/mingw64/bin/../lib/gcc/x86_64-w64-mingw32/13.2.0/../../../../x86_64-w64-mingw32/lib/../lib/libmsvcrt.a(libmsvcrt_defs01166.o)
                0x000000033753da24                __imp_localeconv
 .idata$5       0x000000033753da2c        0x8 C:/Users/DuyThanh/mingw64/bin/../lib/gcc/x86_64-w64-mingw32/13.2.0/../../../../x86_64-w64-mingw32/lib/../lib/libmsvcrt.a(libmsvcrt_defs01173.o)
                0x000000033753da2c                __imp_malloc
 .idata$5       0x000000033753da34        0x8 C:/Users/DuyThanh/mingw64/bin/../lib/gcc/x86_64-w64-mingw32/13.2.0/../../../../x86_64-w64-mingw32/lib/../lib/libmsvcrt.a(libmsvcrt_defs01181.o)
                0x000000033753da34                __imp_memchr
 .idata$5       0x000000033753da3c        0x8 C:/Users/DuyThanh/mingw64/bin/../lib/gcc/x86_64-w64-mingw32/13.2.0/../../../../x86_64-w64-mingw32/lib/../lib/libmsvcrt.a(libmsvcrt_defs01182.o)
                0x000000033753da3c                __imp_memcmp
 .idata$5       0x000000033753da44        0x8 C:/Users/DuyThanh/mingw64/bin/../lib/gcc/x86_64-w64-mingw32/13.2.0/../../../../x86_64-w64-mingw32/lib/../lib/libmsvcrt.a(libmsvcrt_defs01183.o)
                0x000000033753da44                __imp_memcpy
 .idata$5       0x000000033753da4c        0x8 C:/Users/DuyThanh/mingw64/bin/../lib/gcc/x86_64-w64-mingw32/13.2.0/../../../../x86_64-w64-mingw32/lib/../lib/libmsvcrt.a(libmsvcrt_defs01184.o)
                0x000000033753da4c                __imp_memmove
 .idata$5       0x000000033753da54        0x8 C:/Users/DuyThanh/mingw64/bin/../lib/gcc/x86_64-w64-mingw32/13.2.0/../../../../x86_64-w64-mingw32/lib/../lib/libmsvcrt.a(libmsvcrt_defs01185.o)
                0x000000033753da54                __imp_memset
 .idata$5       0x000000033753da5c        0x8 C:/Users/DuyThanh/mingw64/bin/../lib/gcc/x86_64-w64-mingw32/13.2.0/../../../../x86_64-w64-mingw32/lib/../lib/libmsvcrt.a(libmsvcrt_defs01203.o)
                0x000000033753da5c                __imp_realloc
 .idata$5       0x000000033753da64        0x8 C:/Users/DuyThanh/mingw64/bin/../lib/gcc/x86_64-w64-mingw32/13.2.0/../../../../x86_64-w64-mingw32/lib/../lib/libmsvcrt.a(libmsvcrt_defs01206.o)
                0x000000033753da64                __imp_rewind
 .idata$5       0x000000033753da6c        0x8 C:/Users/DuyThanh/mingw64/bin/../lib/gcc/x86_64-w64-mingw32/13.2.0/../../../../x86_64-w64-mingw32/lib/../lib/libmsvcrt.a(libmsvcrt_defs01212.o)
                0x000000033753da6c                __imp_setvbuf
 .idata$5       0x000000033753da74        0x8 C:/Users/DuyThanh/mingw64/bin/../lib/gcc/x86_64-w64-mingw32/13.2.0/../../../../x86_64-w64-mingw32/lib/../lib/libmsvcrt.a(libmsvcrt_defs01228.o)
                0x000000033753da74                __imp_strchr
 .idata$5       0x000000033753da7c        0x8 C:/Users/DuyThanh/mingw64/bin/../lib/gcc/x86_64-w64-mingw32/13.2.0/../../../../x86_64-w64-mingw32/lib/../lib/libmsvcrt.a(libmsvcrt_defs01229.o)
                0x000000033753da7c                __imp_strcmp
 .idata$5       0x000000033753da84        0x8 C:/Users/DuyThanh/mingw64/bin/../lib/gcc/x86_64-w64-mingw32/13.2.0/../../../../x86_64-w64-mingw32/lib/../lib/libmsvcrt.a(libmsvcrt_defs01231.o)
                0x000000033753da84                __imp_strcpy
 .idata$5       0x000000033753da8c        0x8 C:/Users/DuyThanh/mingw64/bin/../lib/gcc/x86_64-w64-mingw32/13.2.0/../../../../x86_64-w64-mingw32/lib/../lib/libmsvcrt.a(libmsvcrt_defs01233.o)
                0x000000033753da8c                __imp_strcspn
 .idata$5       0x000000033753da94        0x8 C:/Users/DuyThanh/mingw64/bin/../lib/gcc/x86_64-w64-mingw32/13.2.0/../../../../x86_64-w64-mingw32/lib/../lib/libmsvcrt.a(libmsvcrt_defs01234.o)
                0x000000033753da94                __imp_strerror
 .idata$5       0x000000033753da9c        0x8 C:/Users/DuyThanh/mingw64/bin/../lib/gcc/x86_64-w64-mingw32/13.2.0/../../../../x86_64-w64-mingw32/lib/../lib/libmsvcrt.a(libmsvcrt_defs01236.o)
                0x000000033753da9c                __imp_strlen
 .idata$5       0x000000033753daa4        0x8 C:/Users/DuyThanh/mingw64/bin/../lib/gcc/x86_64-w64-mingw32/13.2.0/../../../../x86_64-w64-mingw32/lib/../lib/libmsvcrt.a(libmsvcrt_defs01239.o)
                0x000000033753daa4                __imp_strncmp
 .idata$5       0x000000033753daac        0x8 C:/Users/DuyThanh/mingw64/bin/../lib/gcc/x86_64-w64-mingw32/13.2.0/../../../../x86_64-w64-mingw32/lib/../lib/libmsvcrt.a(libmsvcrt_defs01240.o)
                0x000000033753daac                __imp_strncpy
 .idata$5       0x000000033753dab4        0x8 C:/Users/DuyThanh/mingw64/bin/../lib/gcc/x86_64-w64-mingw32/13.2.0/../../../../x86_64-w64-mingw32/lib/../lib/libmsvcrt.a(libmsvcrt_defs01243.o)
                0x000000033753dab4                __imp_strrchr
 .idata$5       0x000000033753dabc        0x8 C:/Users/DuyThanh/mingw64/bin/../lib/gcc/x86_64-w64-mingw32/13.2.0/../../../../x86_64-w64-mingw32/lib/../lib/libmsvcrt.a(libmsvcrt_defs01244.o)
                0x000000033753dabc                __imp_strspn
 .idata$5       0x000000033753dac4        0x8 C:/Users/DuyThanh/mingw64/bin/../lib/gcc/x86_64-w64-mingw32/13.2.0/../../../../x86_64-w64-mingw32/lib/../lib/libmsvcrt.a(libmsvcrt_defs01245.o)
                0x000000033753dac4                __imp_strstr
 .idata$5       0x000000033753dacc        0x8 C:/Users/DuyThanh/mingw64/bin/../lib/gcc/x86_64-w64-mingw32/13.2.0/../../../../x86_64-w64-mingw32/lib/../lib/libmsvcrt.a(libmsvcrt_defs01249.o)
                0x000000033753dacc                __imp_strtol
 .idata$5       0x000000033753dad4        0x8 C:/Users/DuyThanh/mingw64/bin/../lib/gcc/x86_64-w64-mingw32/13.2.0/../../../../x86_64-w64-mingw32/lib/../lib/libmsvcrt.a(libmsvcrt_defs01250.o)
                0x000000033753dad4                __imp_strtoul
 .idata$5       0x000000033753dadc        0x8 C:/Users/DuyThanh/mingw64/bin/../lib/gcc/x86_64-w64-mingw32/13.2.0/../../../../x86_64-w64-mingw32/lib/../lib/libmsvcrt.a(libmsvcrt_defs01259.o)
                0x000000033753dadc                __imp_system
 .idata$5       0x000000033753dae4        0x8 C:/Users/DuyThanh/mingw64/bin/../lib/gcc/x86_64-w64-mingw32/13.2.0/../../../../x86_64-w64-mingw32/lib/../lib/libmsvcrt.a(libmsvcrt_defs01267.o)
                0x000000033753dae4                __imp_tolower
 .idata$5       0x000000033753daec        0x8 C:/Users/DuyThanh/mingw64/bin/../lib/gcc/x86_64-w64-mingw32/13.2.0/../../../../x86_64-w64-mingw32/lib/../lib/libmsvcrt.a(libmsvcrt_defs01273.o)
                0x000000033753daec                __imp_ungetc
 .idata$5       0x000000033753daf4        0x8 C:/Users/DuyThanh/mingw64/bin/../lib/gcc/x86_64-w64-mingw32/13.2.0/../../../../x86_64-w64-mingw32/lib/../lib/libmsvcrt.a(libmsvcrt_defs01274.o)
                0x000000033753daf4                __imp_vfprintf
 .idata$5       0x000000033753dafc        0x8 C:/Users/DuyThanh/mingw64/bin/../lib/gcc/x86_64-w64-mingw32/13.2.0/../../../../x86_64-w64-mingw32/lib/../lib/libmsvcrt.a(libmsvcrt_defs01300.o)
                0x000000033753dafc                __imp_wcslen
 .idata$5       0x000000033753db04        0x8 C:/Users/DuyThanh/mingw64/bin/../lib/gcc/x86_64-w64-mingw32/13.2.0/../../../../x86_64-w64-mingw32/lib/../lib/libmsvcrt.a(libmsvcrt_deft.o)
                0x000000033753db0c                __IAT_end__ = .
 SORT_BY_NAME(*)(.idata$6)
 .idata$6       0x000000033753db0c       0x12 C:/Users/DuyThanh/mingw64/bin/../lib/gcc/x86_64-w64-mingw32/13.2.0/../../../../x86_64-w64-mingw32/lib/../lib/libkernel32.a(libkernel32s00035.o)
 .idata$6       0x000000033753db1e        0xe C:/Users/DuyThanh/mingw64/bin/../lib/gcc/x86_64-w64-mingw32/13.2.0/../../../../x86_64-w64-mingw32/lib/../lib/libkernel32.a(libkernel32s00140.o)
 .idata$6       0x000000033753db2c        0xe C:/Users/DuyThanh/mingw64/bin/../lib/gcc/x86_64-w64-mingw32/13.2.0/../../../../x86_64-w64-mingw32/lib/../lib/libkernel32.a(libkernel32s00203.o)
 .idata$6       0x000000033753db3a       0x16 C:/Users/DuyThanh/mingw64/bin/../lib/gcc/x86_64-w64-mingw32/13.2.0/../../../../x86_64-w64-mingw32/lib/../lib/libkernel32.a(libkernel32s00208.o)
 .idata$6       0x000000033753db50        0xe C:/Users/DuyThanh/mingw64/bin/../lib/gcc/x86_64-w64-mingw32/13.2.0/../../../../x86_64-w64-mingw32/lib/../lib/libkernel32.a(libkernel32s00211.o)
 .idata$6       0x000000033753db5e       0x10 C:/Users/DuyThanh/mingw64/bin/../lib/gcc/x86_64-w64-mingw32/13.2.0/../../../../x86_64-w64-mingw32/lib/../lib/libkernel32.a(libkernel32s00226.o)
 .idata$6       0x000000033753db6e        0xe C:/Users/DuyThanh/mingw64/bin/../lib/gcc/x86_64-w64-mingw32/13.2.0/../../../../x86_64-w64-mingw32/lib/../lib/libkernel32.a(libkernel32s00270.o)
 .idata$6       0x000000033753db7c       0x18 C:/Users/DuyThanh/mingw64/bin/../lib/gcc/x86_64-w64-mingw32/13.2.0/../../../../x86_64-w64-mingw32/lib/../lib/libkernel32.a(libkernel32s00280.o)
 .idata$6       0x000000033753db94        0xe C:/Users/DuyThanh/mingw64/bin/../lib/gcc/x86_64-w64-mingw32/13.2.0/../../../../x86_64-w64-mingw32/lib/../lib/libkernel32.a(libkernel32s00282.o)
 .idata$6       0x000000033753dba2        0xe C:/Users/DuyThanh/mingw64/bin/../lib/gcc/x86_64-w64-mingw32/13.2.0/../../../../x86_64-w64-mingw32/lib/../lib/libkernel32.a(libkernel32s00285.o)
 .idata$6       0x000000033753dbb0       0x18 C:/Users/DuyThanh/mingw64/bin/../lib/gcc/x86_64-w64-mingw32/13.2.0/../../../../x86_64-w64-mingw32/lib/../lib/libkernel32.a(libkernel32s00316.o)
 .idata$6       0x000000033753dbc8        0xc C:/Users/DuyThanh/mingw64/bin/../lib/gcc/x86_64-w64-mingw32/13.2.0/../../../../x86_64-w64-mingw32/lib/../lib/libkernel32.a(libkernel32s00386.o)
 .idata$6       0x000000033753dbd4       0x12 C:/Users/DuyThanh/mingw64/bin/../lib/gcc/x86_64-w64-mingw32/13.2.0/../../../../x86_64-w64-mingw32/lib/../lib/libkernel32.a(libkernel32s00397.o)
 .idata$6       0x000000033753dbe6       0x14 C:/Users/DuyThanh/mingw64/bin/../lib/gcc/x86_64-w64-mingw32/13.2.0/../../../../x86_64-w64-mingw32/lib/../lib/libkernel32.a(libkernel32s00428.o)
 .idata$6       0x000000033753dbfa       0x12 C:/Users/DuyThanh/mingw64/bin/../lib/gcc/x86_64-w64-mingw32/13.2.0/../../../../x86_64-w64-mingw32/lib/../lib/libkernel32.a(libkernel32s00431.o)
 .idata$6       0x000000033753dc0c       0x12 C:/Users/DuyThanh/mingw64/bin/../lib/gcc/x86_64-w64-mingw32/13.2.0/../../../../x86_64-w64-mingw32/lib/../lib/libkernel32.a(libkernel32s00435.o)
 .idata$6       0x000000033753dc1e       0x12 C:/Users/DuyThanh/mingw64/bin/../lib/gcc/x86_64-w64-mingw32/13.2.0/../../../../x86_64-w64-mingw32/lib/../lib/libkernel32.a(libkernel32s00436.o)
 .idata$6       0x000000033753dc30        0xe C:/Users/DuyThanh/mingw64/bin/../lib/gcc/x86_64-w64-mingw32/13.2.0/../../../../x86_64-w64-mingw32/lib/../lib/libkernel32.a(libkernel32s00440.o)
 .idata$6       0x000000033753dc3e       0x12 C:/Users/DuyThanh/mingw64/bin/../lib/gcc/x86_64-w64-mingw32/13.2.0/../../../../x86_64-w64-mingw32/lib/../lib/libkernel32.a(libkernel32s00522.o)
 .idata$6       0x000000033753dc50       0x1e C:/Users/DuyThanh/mingw64/bin/../lib/gcc/x86_64-w64-mingw32/13.2.0/../../../../x86_64-w64-mingw32/lib/../lib/libkernel32.a(libkernel32s00528.o)
 .idata$6       0x000000033753dc6e       0x14 C:/Users/DuyThanh/mingw64/bin/../lib/gcc/x86_64-w64-mingw32/13.2.0/../../../../x86_64-w64-mingw32/lib/../lib/libkernel32.a(libkernel32s00549.o)
 .idata$6       0x000000033753dc82       0x16 C:/Users/DuyThanh/mingw64/bin/../lib/gcc/x86_64-w64-mingw32/13.2.0/../../../../x86_64-w64-mingw32/lib/../lib/libkernel32.a(libkernel32s00550.o)
 .idata$6       0x000000033753dc98       0x16 C:/Users/DuyThanh/mingw64/bin/../lib/gcc/x86_64-w64-mingw32/13.2.0/../../../../x86_64-w64-mingw32/lib/../lib/libkernel32.a(libkernel32s00554.o)
 .idata$6       0x000000033753dcae       0x14 C:/Users/DuyThanh/mingw64/bin/../lib/gcc/x86_64-w64-mingw32/13.2.0/../../../../x86_64-w64-mingw32/lib/../lib/libkernel32.a(libkernel32s00566.o)
 .idata$6       0x000000033753dcc2       0x14 C:/Users/DuyThanh/mingw64/bin/../lib/gcc/x86_64-w64-mingw32/13.2.0/../../../../x86_64-w64-mingw32/lib/../lib/libkernel32.a(libkernel32s00569.o)
 .idata$6       0x000000033753dcd6       0x16 C:/Users/DuyThanh/mingw64/bin/../lib/gcc/x86_64-w64-mingw32/13.2.0/../../../../x86_64-w64-mingw32/lib/../lib/libkernel32.a(libkernel32s00595.o)
 .idata$6       0x000000033753dcec       0x18 C:/Users/DuyThanh/mingw64/bin/../lib/gcc/x86_64-w64-mingw32/13.2.0/../../../../x86_64-w64-mingw32/lib/../lib/libkernel32.a(libkernel32s00597.o)
 .idata$6       0x000000033753dd04       0x16 C:/Users/DuyThanh/mingw64/bin/../lib/gcc/x86_64-w64-mingw32/13.2.0/../../../../x86_64-w64-mingw32/lib/../lib/libkernel32.a(libkernel32s00600.o)
 .idata$6       0x000000033753dd1a        0xe C:/Users/DuyThanh/mingw64/bin/../lib/gcc/x86_64-w64-mingw32/13.2.0/../../../../x86_64-w64-mingw32/lib/../lib/libkernel32.a(libkernel32s00606.o)
 .idata$6       0x000000033753dd28        0xe C:/Users/DuyThanh/mingw64/bin/../lib/gcc/x86_64-w64-mingw32/13.2.0/../../../../x86_64-w64-mingw32/lib/../lib/libkernel32.a(libkernel32s00609.o)
 .idata$6       0x000000033753dd36       0x14 C:/Users/DuyThanh/mingw64/bin/../lib/gcc/x86_64-w64-mingw32/13.2.0/../../../../x86_64-w64-mingw32/lib/../lib/libkernel32.a(libkernel32s00617.o)
 .idata$6       0x000000033753dd4a       0x14 C:/Users/DuyThanh/mingw64/bin/../lib/gcc/x86_64-w64-mingw32/13.2.0/../../../../x86_64-w64-mingw32/lib/../lib/libkernel32.a(libkernel32s00620.o)
 .idata$6       0x000000033753dd5e       0x10 C:/Users/DuyThanh/mingw64/bin/../lib/gcc/x86_64-w64-mingw32/13.2.0/../../../../x86_64-w64-mingw32/lib/../lib/libkernel32.a(libkernel32s00627.o)
 .idata$6       0x000000033753dd6e       0x12 C:/Users/DuyThanh/mingw64/bin/../lib/gcc/x86_64-w64-mingw32/13.2.0/../../../../x86_64-w64-mingw32/lib/../lib/libkernel32.a(libkernel32s00707.o)
 .idata$6       0x000000033753dd80       0x12 C:/Users/DuyThanh/mingw64/bin/../lib/gcc/x86_64-w64-mingw32/13.2.0/../../../../x86_64-w64-mingw32/lib/../lib/libkernel32.a(libkernel32s00713.o)
 .idata$6       0x000000033753dd92       0x10 C:/Users/DuyThanh/mingw64/bin/../lib/gcc/x86_64-w64-mingw32/13.2.0/../../../../x86_64-w64-mingw32/lib/../lib/libkernel32.a(libkernel32s00743.o)
 .idata$6       0x000000033753dda2       0x10 C:/Users/DuyThanh/mingw64/bin/../lib/gcc/x86_64-w64-mingw32/13.2.0/../../../../x86_64-w64-mingw32/lib/../lib/libkernel32.a(libkernel32s00760.o)
 .idata$6       0x000000033753ddb2       0x10 C:/Users/DuyThanh/mingw64/bin/../lib/gcc/x86_64-w64-mingw32/13.2.0/../../../../x86_64-w64-mingw32/lib/../lib/libkernel32.a(libkernel32s00764.o)
 .idata$6       0x000000033753ddc2       0x1a C:/Users/DuyThanh/mingw64/bin/../lib/gcc/x86_64-w64-mingw32/13.2.0/../../../../x86_64-w64-mingw32/lib/../lib/libkernel32.a(libkernel32s00766.o)
 .idata$6       0x000000033753dddc       0x10 C:/Users/DuyThanh/mingw64/bin/../lib/gcc/x86_64-w64-mingw32/13.2.0/../../../../x86_64-w64-mingw32/lib/../lib/libkernel32.a(libkernel32s00778.o)
 .idata$6       0x000000033753ddec       0x10 C:/Users/DuyThanh/mingw64/bin/../lib/gcc/x86_64-w64-mingw32/13.2.0/../../../../x86_64-w64-mingw32/lib/../lib/libkernel32.a(libkernel32s00779.o)
 .idata$6       0x000000033753ddfc       0x10 C:/Users/DuyThanh/mingw64/bin/../lib/gcc/x86_64-w64-mingw32/13.2.0/../../../../x86_64-w64-mingw32/lib/../lib/libkernel32.a(libkernel32s00796.o)
 .idata$6       0x000000033753de0c        0xc C:/Users/DuyThanh/mingw64/bin/../lib/gcc/x86_64-w64-mingw32/13.2.0/../../../../x86_64-w64-mingw32/lib/../lib/libkernel32.a(libkernel32s00860.o)
 .idata$6       0x000000033753de18        0xe C:/Users/DuyThanh/mingw64/bin/../lib/gcc/x86_64-w64-mingw32/13.2.0/../../../../x86_64-w64-mingw32/lib/../lib/libkernel32.a(libkernel32s00861.o)
 .idata$6       0x000000033753de26        0xe C:/Users/DuyThanh/mingw64/bin/../lib/gcc/x86_64-w64-mingw32/13.2.0/../../../../x86_64-w64-mingw32/lib/../lib/libkernel32.a(libkernel32s00862.o)
 .idata$6       0x000000033753de34        0xe C:/Users/DuyThanh/mingw64/bin/../lib/gcc/x86_64-w64-mingw32/13.2.0/../../../../x86_64-w64-mingw32/lib/../lib/libkernel32.a(libkernel32s00864.o)
 .idata$6       0x000000033753de42        0xc C:/Users/DuyThanh/mingw64/bin/../lib/gcc/x86_64-w64-mingw32/13.2.0/../../../../x86_64-w64-mingw32/lib/../lib/libkernel32.a(libkernel32s00866.o)
 .idata$6       0x000000033753de4e        0xe C:/Users/DuyThanh/mingw64/bin/../lib/gcc/x86_64-w64-mingw32/13.2.0/../../../../x86_64-w64-mingw32/lib/../lib/libkernel32.a(libkernel32s00870.o)
 .idata$6       0x000000033753de5c        0xc C:/Users/DuyThanh/mingw64/bin/../lib/gcc/x86_64-w64-mingw32/13.2.0/../../../../x86_64-w64-mingw32/lib/../lib/libkernel32.a(libkernel32s00872.o)
 .idata$6       0x000000033753de68       0x10 C:/Users/DuyThanh/mingw64/bin/../lib/gcc/x86_64-w64-mingw32/13.2.0/../../../../x86_64-w64-mingw32/lib/../lib/libkernel32.a(libkernel32s00876.o)
 .idata$6       0x000000033753de78       0x1c C:/Users/DuyThanh/mingw64/bin/../lib/gcc/x86_64-w64-mingw32/13.2.0/../../../../x86_64-w64-mingw32/lib/../lib/libkernel32.a(libkernel32s00889.o)
 .idata$6       0x000000033753de94       0x14 C:/Users/DuyThanh/mingw64/bin/../lib/gcc/x86_64-w64-mingw32/13.2.0/../../../../x86_64-w64-mingw32/lib/../lib/libkernel32.a(libkernel32s00916.o)
 .idata$6       0x000000033753dea8       0x18 C:/Users/DuyThanh/mingw64/bin/../lib/gcc/x86_64-w64-mingw32/13.2.0/../../../../x86_64-w64-mingw32/lib/../lib/libkernel32.a(libkernel32s00981.o)
 .idata$6       0x000000033753dec0       0x10 C:/Users/DuyThanh/mingw64/bin/../lib/gcc/x86_64-w64-mingw32/13.2.0/../../../../x86_64-w64-mingw32/lib/../lib/libkernel32.a(libkernel32s00985.o)
 .idata$6       0x000000033753ded0       0x10 C:/Users/DuyThanh/mingw64/bin/../lib/gcc/x86_64-w64-mingw32/13.2.0/../../../../x86_64-w64-mingw32/lib/../lib/libkernel32.a(libkernel32s00988.o)
 .idata$6       0x000000033753dee0        0xc C:/Users/DuyThanh/mingw64/bin/../lib/gcc/x86_64-w64-mingw32/13.2.0/../../../../x86_64-w64-mingw32/lib/../lib/libkernel32.a(libkernel32s00999.o)
 .idata$6       0x000000033753deec        0xc C:/Users/DuyThanh/mingw64/bin/../lib/gcc/x86_64-w64-mingw32/13.2.0/../../../../x86_64-w64-mingw32/lib/../lib/libkernel32.a(libkernel32s01011.o)
 .idata$6       0x000000033753def8        0xe C:/Users/DuyThanh/mingw64/bin/../lib/gcc/x86_64-w64-mingw32/13.2.0/../../../../x86_64-w64-mingw32/lib/../lib/libkernel32.a(libkernel32s01012.o)
 .idata$6       0x000000033753df06       0x10 C:/Users/DuyThanh/mingw64/bin/../lib/gcc/x86_64-w64-mingw32/13.2.0/../../../../x86_64-w64-mingw32/lib/../lib/libkernel32.a(libkernel32s01016.o)
 .idata$6       0x000000033753df16       0x16 C:/Users/DuyThanh/mingw64/bin/../lib/gcc/x86_64-w64-mingw32/13.2.0/../../../../x86_64-w64-mingw32/lib/../lib/libkernel32.a(libkernel32s01033.o)
 .idata$6       0x000000033753df2c       0x16 C:/Users/DuyThanh/mingw64/bin/../lib/gcc/x86_64-w64-mingw32/13.2.0/../../../../x86_64-w64-mingw32/lib/../lib/libkernel32.a(libkernel32s01075.o)
 .idata$6       0x000000033753df42       0x16 C:/Users/DuyThanh/mingw64/bin/../lib/gcc/x86_64-w64-mingw32/13.2.0/../../../../x86_64-w64-mingw32/lib/../lib/libkernel32.a(libkernel32s01076.o)
 .idata$6       0x000000033753df58       0x1a C:/Users/DuyThanh/mingw64/bin/../lib/gcc/x86_64-w64-mingw32/13.2.0/../../../../x86_64-w64-mingw32/lib/../lib/libkernel32.a(libkernel32s01128.o)
 .idata$6       0x000000033753df72       0x10 C:/Users/DuyThanh/mingw64/bin/../lib/gcc/x86_64-w64-mingw32/13.2.0/../../../../x86_64-w64-mingw32/lib/../lib/libkernel32.a(libkernel32s01164.o)
 .idata$6       0x000000033753df82        0xc C:/Users/DuyThanh/mingw64/bin/../lib/gcc/x86_64-w64-mingw32/13.2.0/../../../../x86_64-w64-mingw32/lib/../lib/libkernel32.a(libkernel32s01167.o)
 .idata$6       0x000000033753df8e       0x18 C:/Users/DuyThanh/mingw64/bin/../lib/gcc/x86_64-w64-mingw32/13.2.0/../../../../x86_64-w64-mingw32/lib/../lib/libkernel32.a(libkernel32s01258.o)
 .idata$6       0x000000033753dfa6       0x12 C:/Users/DuyThanh/mingw64/bin/../lib/gcc/x86_64-w64-mingw32/13.2.0/../../../../x86_64-w64-mingw32/lib/../lib/libkernel32.a(libkernel32s01274.o)
 .idata$6       0x000000033753dfb8       0x1a C:/Users/DuyThanh/mingw64/bin/../lib/gcc/x86_64-w64-mingw32/13.2.0/../../../../x86_64-w64-mingw32/lib/../lib/libkernel32.a(libkernel32s01283.o)
 .idata$6       0x000000033753dfd2       0x18 C:/Users/DuyThanh/mingw64/bin/../lib/gcc/x86_64-w64-mingw32/13.2.0/../../../../x86_64-w64-mingw32/lib/../lib/libkernel32.a(libkernel32s01290.o)
 .idata$6       0x000000033753dfea       0x10 C:/Users/DuyThanh/mingw64/bin/../lib/gcc/x86_64-w64-mingw32/13.2.0/../../../../x86_64-w64-mingw32/lib/../lib/libkernel32.a(libkernel32s01297.o)
 .idata$6       0x000000033753dffa       0x12 C:/Users/DuyThanh/mingw64/bin/../lib/gcc/x86_64-w64-mingw32/13.2.0/../../../../x86_64-w64-mingw32/lib/../lib/libkernel32.a(libkernel32s01316.o)
 .idata$6       0x000000033753e00c        0xe C:/Users/DuyThanh/mingw64/bin/../lib/gcc/x86_64-w64-mingw32/13.2.0/../../../../x86_64-w64-mingw32/lib/../lib/libkernel32.a(libkernel32s01320.o)
 .idata$6       0x000000033753e01a        0x8 C:/Users/DuyThanh/mingw64/bin/../lib/gcc/x86_64-w64-mingw32/13.2.0/../../../../x86_64-w64-mingw32/lib/../lib/libkernel32.a(libkernel32s01406.o)
 .idata$6       0x000000033753e022       0x18 C:/Users/DuyThanh/mingw64/bin/../lib/gcc/x86_64-w64-mingw32/13.2.0/../../../../x86_64-w64-mingw32/lib/../lib/libkernel32.a(libkernel32s01417.o)
 .idata$6       0x000000033753e03a        0xe C:/Users/DuyThanh/mingw64/bin/../lib/gcc/x86_64-w64-mingw32/13.2.0/../../../../x86_64-w64-mingw32/lib/../lib/libkernel32.a(libkernel32s01441.o)
 .idata$6       0x000000033753e048       0x1a C:/Users/DuyThanh/mingw64/bin/../lib/gcc/x86_64-w64-mingw32/13.2.0/../../../../x86_64-w64-mingw32/lib/../lib/libkernel32.a(libkernel32s01448.o)
 .idata$6       0x000000033753e062        0xe C:/Users/DuyThanh/mingw64/bin/../lib/gcc/x86_64-w64-mingw32/13.2.0/../../../../x86_64-w64-mingw32/lib/../lib/libkernel32.a(libkernel32s01456.o)
 .idata$6       0x000000033753e070       0x10 C:/Users/DuyThanh/mingw64/bin/../lib/gcc/x86_64-w64-mingw32/13.2.0/../../../../x86_64-w64-mingw32/lib/../lib/libkernel32.a(libkernel32s01457.o)
 .idata$6       0x000000033753e080       0x12 C:/Users/DuyThanh/mingw64/bin/../lib/gcc/x86_64-w64-mingw32/13.2.0/../../../../x86_64-w64-mingw32/lib/../lib/libkernel32.a(libkernel32s01458.o)
 .idata$6       0x000000033753e092       0x12 C:/Users/DuyThanh/mingw64/bin/../lib/gcc/x86_64-w64-mingw32/13.2.0/../../../../x86_64-w64-mingw32/lib/../lib/libkernel32.a(libkernel32s01488.o)
 .idata$6       0x000000033753e0a4       0x10 C:/Users/DuyThanh/mingw64/bin/../lib/gcc/x86_64-w64-mingw32/13.2.0/../../../../x86_64-w64-mingw32/lib/../lib/libkernel32.a(libkernel32s01490.o)
 .idata$6       0x000000033753e0b4       0x16 C:/Users/DuyThanh/mingw64/bin/../lib/gcc/x86_64-w64-mingw32/13.2.0/../../../../x86_64-w64-mingw32/lib/../lib/libkernel32.a(libkernel32s01499.o)
 .idata$6       0x000000033753e0ca       0x18 C:/Users/DuyThanh/mingw64/bin/../lib/gcc/x86_64-w64-mingw32/13.2.0/../../../../x86_64-w64-mingw32/lib/../lib/libkernel32.a(libkernel32s01500.o)
 .idata$6       0x000000033753e0e2       0x16 C:/Users/DuyThanh/mingw64/bin/../lib/gcc/x86_64-w64-mingw32/13.2.0/../../../../x86_64-w64-mingw32/lib/../lib/libkernel32.a(libkernel32s01543.o)
 .idata$6       0x000000033753e0f8       0x10 C:/Users/DuyThanh/mingw64/bin/../lib/gcc/x86_64-w64-mingw32/13.2.0/../../../../x86_64-w64-mingw32/lib/../lib/libkernel32.a(libkernel32s01562.o)
 .idata$6       0x000000033753e108        0xc C:/Users/DuyThanh/mingw64/bin/../lib/gcc/x86_64-w64-mingw32/13.2.0/../../../../x86_64-w64-mingw32/lib/../lib/libkernel32.a(libkernel32s01563.o)
 .idata$6       0x000000033753e114       0x16 C:/Users/DuyThanh/mingw64/bin/../lib/gcc/x86_64-w64-mingw32/13.2.0/../../../../x86_64-w64-mingw32/lib/../lib/libmsvcrt.a(libmsvcrt_defs00063.o)
 .idata$6       0x000000033753e12a       0x16 C:/Users/DuyThanh/mingw64/bin/../lib/gcc/x86_64-w64-mingw32/13.2.0/../../../../x86_64-w64-mingw32/lib/../lib/libmsvcrt.a(libmsvcrt_defs00066.o)
 .idata$6       0x000000033753e140        0xe C:/Users/DuyThanh/mingw64/bin/../lib/gcc/x86_64-w64-mingw32/13.2.0/../../../../x86_64-w64-mingw32/lib/../lib/libmsvcrt.a(libmsvcrt_defs00083.o)
 .idata$6       0x000000033753e14e        0xa C:/Users/DuyThanh/mingw64/bin/../lib/gcc/x86_64-w64-mingw32/13.2.0/../../../../x86_64-w64-mingw32/lib/../lib/libmsvcrt.a(libmsvcrt_defs00114.o)
 .idata$6       0x000000033753e158        0xe C:/Users/DuyThanh/mingw64/bin/../lib/gcc/x86_64-w64-mingw32/13.2.0/../../../../x86_64-w64-mingw32/lib/../lib/libmsvcrt.a(libmsvcrt_defs00124.o)
 .idata$6       0x000000033753e166        0xa C:/Users/DuyThanh/mingw64/bin/../lib/gcc/x86_64-w64-mingw32/13.2.0/../../../../x86_64-w64-mingw32/lib/../lib/libmsvcrt.a(libmsvcrt_defs00125.o)
 .idata$6       0x000000033753e170       0x12 C:/Users/DuyThanh/mingw64/bin/../lib/gcc/x86_64-w64-mingw32/13.2.0/../../../../x86_64-w64-mingw32/lib/../lib/libmsvcrt.a(libmsvcrt_defs00140.o)
 .idata$6       0x000000033753e182        0xa C:/Users/DuyThanh/mingw64/bin/../lib/gcc/x86_64-w64-mingw32/13.2.0/../../../../x86_64-w64-mingw32/lib/../lib/libmsvcrt.a(libmsvcrt_defs00154.o)
 .idata$6       0x000000033753e18c       0x10 C:/Users/DuyThanh/mingw64/bin/../lib/gcc/x86_64-w64-mingw32/13.2.0/../../../../x86_64-w64-mingw32/lib/../lib/libmsvcrt.a(libmsvcrt_defs00202.o)
 .idata$6       0x000000033753e19c        0xa C:/Users/DuyThanh/mingw64/bin/../lib/gcc/x86_64-w64-mingw32/13.2.0/../../../../x86_64-w64-mingw32/lib/../lib/libmsvcrt.a(libmsvcrt_defs00205.o)
 .idata$6       0x000000033753e1a6        0x8 C:/Users/DuyThanh/mingw64/bin/../lib/gcc/x86_64-w64-mingw32/13.2.0/../../../../x86_64-w64-mingw32/lib/../lib/libmsvcrt.a(libmsvcrt_defs00224.o)
 .idata$6       0x000000033753e1ae        0xa C:/Users/DuyThanh/mingw64/bin/../lib/gcc/x86_64-w64-mingw32/13.2.0/../../../../x86_64-w64-mingw32/lib/../lib/libmsvcrt.a(libmsvcrt_defs00236.o)
 .idata$6       0x000000033753e1b8        0xe C:/Users/DuyThanh/mingw64/bin/../lib/gcc/x86_64-w64-mingw32/13.2.0/../../../../x86_64-w64-mingw32/lib/../lib/libmsvcrt.a(libmsvcrt_defs00237.o)
 .idata$6       0x000000033753e1c6       0x10 C:/Users/DuyThanh/mingw64/bin/../lib/gcc/x86_64-w64-mingw32/13.2.0/../../../../x86_64-w64-mingw32/lib/../lib/libmsvcrt.a(libmsvcrt_defs00242.o)
 .idata$6       0x000000033753e1d6        0xe C:/Users/DuyThanh/mingw64/bin/../lib/gcc/x86_64-w64-mingw32/13.2.0/../../../../x86_64-w64-mingw32/lib/../lib/libmsvcrt.a(libmsvcrt_defs00245.o)
 .idata$6       0x000000033753e1e4        0xc C:/Users/DuyThanh/mingw64/bin/../lib/gcc/x86_64-w64-mingw32/13.2.0/../../../../x86_64-w64-mingw32/lib/../lib/libmsvcrt.a(libmsvcrt_defs00275.o)
 .idata$6       0x000000033753e1f0        0xc C:/Users/DuyThanh/mingw64/bin/../lib/gcc/x86_64-w64-mingw32/13.2.0/../../../../x86_64-w64-mingw32/lib/../lib/libmsvcrt.a(libmsvcrt_defs00282.o)
 .idata$6       0x000000033753e1fc       0x12 C:/Users/DuyThanh/mingw64/bin/../lib/gcc/x86_64-w64-mingw32/13.2.0/../../../../x86_64-w64-mingw32/lib/../lib/libmsvcrt.a(libmsvcrt_defs00298.o)
 .idata$6       0x000000033753e20e        0xa C:/Users/DuyThanh/mingw64/bin/../lib/gcc/x86_64-w64-mingw32/13.2.0/../../../../x86_64-w64-mingw32/lib/../lib/libmsvcrt.a(libmsvcrt_defs00314.o)
 .idata$6       0x000000033753e218        0xc C:/Users/DuyThanh/mingw64/bin/../lib/gcc/x86_64-w64-mingw32/13.2.0/../../../../x86_64-w64-mingw32/lib/../lib/libmsvcrt.a(libmsvcrt_defs00337.o)
 .idata$6       0x000000033753e224        0xa C:/Users/DuyThanh/mingw64/bin/../lib/gcc/x86_64-w64-mingw32/13.2.0/../../../../x86_64-w64-mingw32/lib/../lib/libmsvcrt.a(libmsvcrt_defs00342.o)
 .idata$6       0x000000033753e22e       0x10 C:/Users/DuyThanh/mingw64/bin/../lib/gcc/x86_64-w64-mingw32/13.2.0/../../../../x86_64-w64-mingw32/lib/../lib/libmsvcrt.a(libmsvcrt_defs00445.o)
 .idata$6       0x000000033753e23e        0x8 C:/Users/DuyThanh/mingw64/bin/../lib/gcc/x86_64-w64-mingw32/13.2.0/../../../../x86_64-w64-mingw32/lib/../lib/libmsvcrt.a(libmsvcrt_defs00446.o)
 .idata$6       0x000000033753e246        0xa C:/Users/DuyThanh/mingw64/bin/../lib/gcc/x86_64-w64-mingw32/13.2.0/../../../../x86_64-w64-mingw32/lib/../lib/libmsvcrt.a(libmsvcrt_defs00607.o)
 .idata$6       0x000000033753e250        0xa C:/Users/DuyThanh/mingw64/bin/../lib/gcc/x86_64-w64-mingw32/13.2.0/../../../../x86_64-w64-mingw32/lib/../lib/libmsvcrt.a(libmsvcrt_defs00624.o)
 .idata$6       0x000000033753e25a        0xa C:/Users/DuyThanh/mingw64/bin/../lib/gcc/x86_64-w64-mingw32/13.2.0/../../../../x86_64-w64-mingw32/lib/../lib/libmsvcrt.a(libmsvcrt_defs00629.o)
 .idata$6       0x000000033753e264        0xc C:/Users/DuyThanh/mingw64/bin/../lib/gcc/x86_64-w64-mingw32/13.2.0/../../../../x86_64-w64-mingw32/lib/../lib/libmsvcrt.a(libmsvcrt_defs00683.o)
 .idata$6       0x000000033753e270        0xa C:/Users/DuyThanh/mingw64/bin/../lib/gcc/x86_64-w64-mingw32/13.2.0/../../../../x86_64-w64-mingw32/lib/../lib/libmsvcrt.a(libmsvcrt_defs00732.o)
 .idata$6       0x000000033753e27a        0xa C:/Users/DuyThanh/mingw64/bin/../lib/gcc/x86_64-w64-mingw32/13.2.0/../../../../x86_64-w64-mingw32/lib/../lib/libmsvcrt.a(libmsvcrt_defs00741.o)
 .idata$6       0x000000033753e284        0xc C:/Users/DuyThanh/mingw64/bin/../lib/gcc/x86_64-w64-mingw32/13.2.0/../../../../x86_64-w64-mingw32/lib/../lib/libmsvcrt.a(libmsvcrt_defs00778.o)
 .idata$6       0x000000033753e290        0xe C:/Users/DuyThanh/mingw64/bin/../lib/gcc/x86_64-w64-mingw32/13.2.0/../../../../x86_64-w64-mingw32/lib/../lib/libmsvcrt.a(libmsvcrt_defs00781.o)
 .idata$6       0x000000033753e29e        0xa C:/Users/DuyThanh/mingw64/bin/../lib/gcc/x86_64-w64-mingw32/13.2.0/../../../../x86_64-w64-mingw32/lib/../lib/libmsvcrt.a(libmsvcrt_defs00833.o)
 .idata$6       0x000000033753e2a8        0xa C:/Users/DuyThanh/mingw64/bin/../lib/gcc/x86_64-w64-mingw32/13.2.0/../../../../x86_64-w64-mingw32/lib/../lib/libmsvcrt.a(libmsvcrt_defs00837.o)
 .idata$6       0x000000033753e2b2        0xc C:/Users/DuyThanh/mingw64/bin/../lib/gcc/x86_64-w64-mingw32/13.2.0/../../../../x86_64-w64-mingw32/lib/../lib/libmsvcrt.a(libmsvcrt_defs01045.o)
 .idata$6       0x000000033753e2be        0x8 C:/Users/DuyThanh/mingw64/bin/../lib/gcc/x86_64-w64-mingw32/13.2.0/../../../../x86_64-w64-mingw32/lib/../lib/libmsvcrt.a(libmsvcrt_defs01054.o)
 .idata$6       0x000000033753e2c6        0x8 C:/Users/DuyThanh/mingw64/bin/../lib/gcc/x86_64-w64-mingw32/13.2.0/../../../../x86_64-w64-mingw32/lib/../lib/libmsvcrt.a(libmsvcrt_defs01067.o)
 .idata$6       0x000000033753e2ce        0xa C:/Users/DuyThanh/mingw64/bin/../lib/gcc/x86_64-w64-mingw32/13.2.0/../../../../x86_64-w64-mingw32/lib/../lib/libmsvcrt.a(libmsvcrt_defs01071.o)
 .idata$6       0x000000033753e2d8        0x8 C:/Users/DuyThanh/mingw64/bin/../lib/gcc/x86_64-w64-mingw32/13.2.0/../../../../x86_64-w64-mingw32/lib/../lib/libmsvcrt.a(libmsvcrt_defs01085.o)
 .idata$6       0x000000033753e2e0        0xa C:/Users/DuyThanh/mingw64/bin/../lib/gcc/x86_64-w64-mingw32/13.2.0/../../../../x86_64-w64-mingw32/lib/../lib/libmsvcrt.a(libmsvcrt_defs01089.o)
 .idata$6       0x000000033753e2ea        0xa C:/Users/DuyThanh/mingw64/bin/../lib/gcc/x86_64-w64-mingw32/13.2.0/../../../../x86_64-w64-mingw32/lib/../lib/libmsvcrt.a(libmsvcrt_defs01092.o)
 .idata$6       0x000000033753e2f4        0x8 C:/Users/DuyThanh/mingw64/bin/../lib/gcc/x86_64-w64-mingw32/13.2.0/../../../../x86_64-w64-mingw32/lib/../lib/libmsvcrt.a(libmsvcrt_defs01093.o)
 .idata$6       0x000000033753e2fc        0x8 C:/Users/DuyThanh/mingw64/bin/../lib/gcc/x86_64-w64-mingw32/13.2.0/../../../../x86_64-w64-mingw32/lib/../lib/libmsvcrt.a(libmsvcrt_defs01095.o)
 .idata$6       0x000000033753e304        0x8 C:/Users/DuyThanh/mingw64/bin/../lib/gcc/x86_64-w64-mingw32/13.2.0/../../../../x86_64-w64-mingw32/lib/../lib/libmsvcrt.a(libmsvcrt_defs01102.o)
 .idata$6       0x000000033753e30c        0x8 C:/Users/DuyThanh/mingw64/bin/../lib/gcc/x86_64-w64-mingw32/13.2.0/../../../../x86_64-w64-mingw32/lib/../lib/libmsvcrt.a(libmsvcrt_defs01107.o)
 .idata$6       0x000000033753e314        0x8 C:/Users/DuyThanh/mingw64/bin/../lib/gcc/x86_64-w64-mingw32/13.2.0/../../../../x86_64-w64-mingw32/lib/../lib/libmsvcrt.a(libmsvcrt_defs01108.o)
 .idata$6       0x000000033753e31c        0x8 C:/Users/DuyThanh/mingw64/bin/../lib/gcc/x86_64-w64-mingw32/13.2.0/../../../../x86_64-w64-mingw32/lib/../lib/libmsvcrt.a(libmsvcrt_defs01111.o)
 .idata$6       0x000000033753e324        0x8 C:/Users/DuyThanh/mingw64/bin/../lib/gcc/x86_64-w64-mingw32/13.2.0/../../../../x86_64-w64-mingw32/lib/../lib/libmsvcrt.a(libmsvcrt_defs01112.o)
 .idata$6       0x000000033753e32c        0x8 C:/Users/DuyThanh/mingw64/bin/../lib/gcc/x86_64-w64-mingw32/13.2.0/../../../../x86_64-w64-mingw32/lib/../lib/libmsvcrt.a(libmsvcrt_defs01121.o)
 .idata$6       0x000000033753e334        0x8 C:/Users/DuyThanh/mingw64/bin/../lib/gcc/x86_64-w64-mingw32/13.2.0/../../../../x86_64-w64-mingw32/lib/../lib/libmsvcrt.a(libmsvcrt_defs01122.o)
 .idata$6       0x000000033753e33c        0xa C:/Users/DuyThanh/mingw64/bin/../lib/gcc/x86_64-w64-mingw32/13.2.0/../../../../x86_64-w64-mingw32/lib/../lib/libmsvcrt.a(libmsvcrt_defs01125.o)
 .idata$6       0x000000033753e346        0x8 C:/Users/DuyThanh/mingw64/bin/../lib/gcc/x86_64-w64-mingw32/13.2.0/../../../../x86_64-w64-mingw32/lib/../lib/libmsvcrt.a(libmsvcrt_defs01129.o)
 .idata$6       0x000000033753e34e        0xa C:/Users/DuyThanh/mingw64/bin/../lib/gcc/x86_64-w64-mingw32/13.2.0/../../../../x86_64-w64-mingw32/lib/../lib/libmsvcrt.a(libmsvcrt_defs01131.o)
 .idata$6       0x000000033753e358        0xa C:/Users/DuyThanh/mingw64/bin/../lib/gcc/x86_64-w64-mingw32/13.2.0/../../../../x86_64-w64-mingw32/lib/../lib/libmsvcrt.a(libmsvcrt_defs01138.o)
 .idata$6       0x000000033753e362        0xa C:/Users/DuyThanh/mingw64/bin/../lib/gcc/x86_64-w64-mingw32/13.2.0/../../../../x86_64-w64-mingw32/lib/../lib/libmsvcrt.a(libmsvcrt_defs01139.o)
 .idata$6       0x000000033753e36c        0xa C:/Users/DuyThanh/mingw64/bin/../lib/gcc/x86_64-w64-mingw32/13.2.0/../../../../x86_64-w64-mingw32/lib/../lib/libmsvcrt.a(libmsvcrt_defs01145.o)
 .idata$6       0x000000033753e376        0xa C:/Users/DuyThanh/mingw64/bin/../lib/gcc/x86_64-w64-mingw32/13.2.0/../../../../x86_64-w64-mingw32/lib/../lib/libmsvcrt.a(libmsvcrt_defs01147.o)
 .idata$6       0x000000033753e380        0xc C:/Users/DuyThanh/mingw64/bin/../lib/gcc/x86_64-w64-mingw32/13.2.0/../../../../x86_64-w64-mingw32/lib/../lib/libmsvcrt.a(libmsvcrt_defs01162.o)
 .idata$6       0x000000033753e38c        0xe C:/Users/DuyThanh/mingw64/bin/../lib/gcc/x86_64-w64-mingw32/13.2.0/../../../../x86_64-w64-mingw32/lib/../lib/libmsvcrt.a(libmsvcrt_defs01166.o)
 .idata$6       0x000000033753e39a        0xa C:/Users/DuyThanh/mingw64/bin/../lib/gcc/x86_64-w64-mingw32/13.2.0/../../../../x86_64-w64-mingw32/lib/../lib/libmsvcrt.a(libmsvcrt_defs01173.o)
 .idata$6       0x000000033753e3a4        0xa C:/Users/DuyThanh/mingw64/bin/../lib/gcc/x86_64-w64-mingw32/13.2.0/../../../../x86_64-w64-mingw32/lib/../lib/libmsvcrt.a(libmsvcrt_defs01181.o)
 .idata$6       0x000000033753e3ae        0xa C:/Users/DuyThanh/mingw64/bin/../lib/gcc/x86_64-w64-mingw32/13.2.0/../../../../x86_64-w64-mingw32/lib/../lib/libmsvcrt.a(libmsvcrt_defs01182.o)
 .idata$6       0x000000033753e3b8        0xa C:/Users/DuyThanh/mingw64/bin/../lib/gcc/x86_64-w64-mingw32/13.2.0/../../../../x86_64-w64-mingw32/lib/../lib/libmsvcrt.a(libmsvcrt_defs01183.o)
 .idata$6       0x000000033753e3c2        0xa C:/Users/DuyThanh/mingw64/bin/../lib/gcc/x86_64-w64-mingw32/13.2.0/../../../../x86_64-w64-mingw32/lib/../lib/libmsvcrt.a(libmsvcrt_defs01184.o)
 .idata$6       0x000000033753e3cc        0xa C:/Users/DuyThanh/mingw64/bin/../lib/gcc/x86_64-w64-mingw32/13.2.0/../../../../x86_64-w64-mingw32/lib/../lib/libmsvcrt.a(libmsvcrt_defs01185.o)
 .idata$6       0x000000033753e3d6        0xa C:/Users/DuyThanh/mingw64/bin/../lib/gcc/x86_64-w64-mingw32/13.2.0/../../../../x86_64-w64-mingw32/lib/../lib/libmsvcrt.a(libmsvcrt_defs01203.o)
 .idata$6       0x000000033753e3e0        0xa C:/Users/DuyThanh/mingw64/bin/../lib/gcc/x86_64-w64-mingw32/13.2.0/../../../../x86_64-w64-mingw32/lib/../lib/libmsvcrt.a(libmsvcrt_defs01206.o)
 .idata$6       0x000000033753e3ea        0xa C:/Users/DuyThanh/mingw64/bin/../lib/gcc/x86_64-w64-mingw32/13.2.0/../../../../x86_64-w64-mingw32/lib/../lib/libmsvcrt.a(libmsvcrt_defs01212.o)
 .idata$6       0x000000033753e3f4        0xa C:/Users/DuyThanh/mingw64/bin/../lib/gcc/x86_64-w64-mingw32/13.2.0/../../../../x86_64-w64-mingw32/lib/../lib/libmsvcrt.a(libmsvcrt_defs01228.o)
 .idata$6       0x000000033753e3fe        0xa C:/Users/DuyThanh/mingw64/bin/../lib/gcc/x86_64-w64-mingw32/13.2.0/../../../../x86_64-w64-mingw32/lib/../lib/libmsvcrt.a(libmsvcrt_defs01229.o)
 .idata$6       0x000000033753e408        0xa C:/Users/DuyThanh/mingw64/bin/../lib/gcc/x86_64-w64-mingw32/13.2.0/../../../../x86_64-w64-mingw32/lib/../lib/libmsvcrt.a(libmsvcrt_defs01231.o)
 .idata$6       0x000000033753e412        0xa C:/Users/DuyThanh/mingw64/bin/../lib/gcc/x86_64-w64-mingw32/13.2.0/../../../../x86_64-w64-mingw32/lib/../lib/libmsvcrt.a(libmsvcrt_defs01233.o)
 .idata$6       0x000000033753e41c        0xc C:/Users/DuyThanh/mingw64/bin/../lib/gcc/x86_64-w64-mingw32/13.2.0/../../../../x86_64-w64-mingw32/lib/../lib/libmsvcrt.a(libmsvcrt_defs01234.o)
 .idata$6       0x000000033753e428        0xa C:/Users/DuyThanh/mingw64/bin/../lib/gcc/x86_64-w64-mingw32/13.2.0/../../../../x86_64-w64-mingw32/lib/../lib/libmsvcrt.a(libmsvcrt_defs01236.o)
 .idata$6       0x000000033753e432        0xa C:/Users/DuyThanh/mingw64/bin/../lib/gcc/x86_64-w64-mingw32/13.2.0/../../../../x86_64-w64-mingw32/lib/../lib/libmsvcrt.a(libmsvcrt_defs01239.o)
 .idata$6       0x000000033753e43c        0xa C:/Users/DuyThanh/mingw64/bin/../lib/gcc/x86_64-w64-mingw32/13.2.0/../../../../x86_64-w64-mingw32/lib/../lib/libmsvcrt.a(libmsvcrt_defs01240.o)
 .idata$6       0x000000033753e446        0xa C:/Users/DuyThanh/mingw64/bin/../lib/gcc/x86_64-w64-mingw32/13.2.0/../../../../x86_64-w64-mingw32/lib/../lib/libmsvcrt.a(libmsvcrt_defs01243.o)
 .idata$6       0x000000033753e450        0xa C:/Users/DuyThanh/mingw64/bin/../lib/gcc/x86_64-w64-mingw32/13.2.0/../../../../x86_64-w64-mingw32/lib/../lib/libmsvcrt.a(libmsvcrt_defs01244.o)
 .idata$6       0x000000033753e45a        0xa C:/Users/DuyThanh/mingw64/bin/../lib/gcc/x86_64-w64-mingw32/13.2.0/../../../../x86_64-w64-mingw32/lib/../lib/libmsvcrt.a(libmsvcrt_defs01245.o)
 .idata$6       0x000000033753e464        0xa C:/Users/DuyThanh/mingw64/bin/../lib/gcc/x86_64-w64-mingw32/13.2.0/../../../../x86_64-w64-mingw32/lib/../lib/libmsvcrt.a(libmsvcrt_defs01249.o)
 .idata$6       0x000000033753e46e        0xa C:/Users/DuyThanh/mingw64/bin/../lib/gcc/x86_64-w64-mingw32/13.2.0/../../../../x86_64-w64-mingw32/lib/../lib/libmsvcrt.a(libmsvcrt_defs01250.o)
 .idata$6       0x000000033753e478        0xa C:/Users/DuyThanh/mingw64/bin/../lib/gcc/x86_64-w64-mingw32/13.2.0/../../../../x86_64-w64-mingw32/lib/../lib/libmsvcrt.a(libmsvcrt_defs01259.o)
 .idata$6       0x000000033753e482        0xa C:/Users/DuyThanh/mingw64/bin/../lib/gcc/x86_64-w64-mingw32/13.2.0/../../../../x86_64-w64-mingw32/lib/../lib/libmsvcrt.a(libmsvcrt_defs01267.o)
 .idata$6       0x000000033753e48c        0xa C:/Users/DuyThanh/mingw64/bin/../lib/gcc/x86_64-w64-mingw32/13.2.0/../../../../x86_64-w64-mingw32/lib/../lib/libmsvcrt.a(libmsvcrt_defs01273.o)
 .idata$6       0x000000033753e496        0xc C:/Users/DuyThanh/mingw64/bin/../lib/gcc/x86_64-w64-mingw32/13.2.0/../../../../x86_64-w64-mingw32/lib/../lib/libmsvcrt.a(libmsvcrt_defs01274.o)
 .idata$6       0x000000033753e4a2        0xa C:/Users/DuyThanh/mingw64/bin/../lib/gcc/x86_64-w64-mingw32/13.2.0/../../../../x86_64-w64-mingw32/lib/../lib/libmsvcrt.a(libmsvcrt_defs01300.o)
 SORT_BY_NAME(*)(.idata$7)
 .idata$7       0x000000033753e4ac        0x4 C:/Users/DuyThanh/mingw64/bin/../lib/gcc/x86_64-w64-mingw32/13.2.0/../../../../x86_64-w64-mingw32/lib/../lib/libkernel32.a(libkernel32s00035.o)
 .idata$7       0x000000033753e4b0        0x4 C:/Users/DuyThanh/mingw64/bin/../lib/gcc/x86_64-w64-mingw32/13.2.0/../../../../x86_64-w64-mingw32/lib/../lib/libkernel32.a(libkernel32s00140.o)
 .idata$7       0x000000033753e4b4        0x4 C:/Users/DuyThanh/mingw64/bin/../lib/gcc/x86_64-w64-mingw32/13.2.0/../../../../x86_64-w64-mingw32/lib/../lib/libkernel32.a(libkernel32s00203.o)
 .idata$7       0x000000033753e4b8        0x4 C:/Users/DuyThanh/mingw64/bin/../lib/gcc/x86_64-w64-mingw32/13.2.0/../../../../x86_64-w64-mingw32/lib/../lib/libkernel32.a(libkernel32s00208.o)
 .idata$7       0x000000033753e4bc        0x4 C:/Users/DuyThanh/mingw64/bin/../lib/gcc/x86_64-w64-mingw32/13.2.0/../../../../x86_64-w64-mingw32/lib/../lib/libkernel32.a(libkernel32s00211.o)
 .idata$7       0x000000033753e4c0        0x4 C:/Users/DuyThanh/mingw64/bin/../lib/gcc/x86_64-w64-mingw32/13.2.0/../../../../x86_64-w64-mingw32/lib/../lib/libkernel32.a(libkernel32s00226.o)
 .idata$7       0x000000033753e4c4        0x4 C:/Users/DuyThanh/mingw64/bin/../lib/gcc/x86_64-w64-mingw32/13.2.0/../../../../x86_64-w64-mingw32/lib/../lib/libkernel32.a(libkernel32s00270.o)
 .idata$7       0x000000033753e4c8        0x4 C:/Users/DuyThanh/mingw64/bin/../lib/gcc/x86_64-w64-mingw32/13.2.0/../../../../x86_64-w64-mingw32/lib/../lib/libkernel32.a(libkernel32s00280.o)
 .idata$7       0x000000033753e4cc        0x4 C:/Users/DuyThanh/mingw64/bin/../lib/gcc/x86_64-w64-mingw32/13.2.0/../../../../x86_64-w64-mingw32/lib/../lib/libkernel32.a(libkernel32s00282.o)
 .idata$7       0x000000033753e4d0        0x4 C:/Users/DuyThanh/mingw64/bin/../lib/gcc/x86_64-w64-mingw32/13.2.0/../../../../x86_64-w64-mingw32/lib/../lib/libkernel32.a(libkernel32s00285.o)
 .idata$7       0x000000033753e4d4        0x4 C:/Users/DuyThanh/mingw64/bin/../lib/gcc/x86_64-w64-mingw32/13.2.0/../../../../x86_64-w64-mingw32/lib/../lib/libkernel32.a(libkernel32s00316.o)
 .idata$7       0x000000033753e4d8        0x4 C:/Users/DuyThanh/mingw64/bin/../lib/gcc/x86_64-w64-mingw32/13.2.0/../../../../x86_64-w64-mingw32/lib/../lib/libkernel32.a(libkernel32s00386.o)
 .idata$7       0x000000033753e4dc        0x4 C:/Users/DuyThanh/mingw64/bin/../lib/gcc/x86_64-w64-mingw32/13.2.0/../../../../x86_64-w64-mingw32/lib/../lib/libkernel32.a(libkernel32s00397.o)
 .idata$7       0x000000033753e4e0        0x4 C:/Users/DuyThanh/mingw64/bin/../lib/gcc/x86_64-w64-mingw32/13.2.0/../../../../x86_64-w64-mingw32/lib/../lib/libkernel32.a(libkernel32s00428.o)
 .idata$7       0x000000033753e4e4        0x4 C:/Users/DuyThanh/mingw64/bin/../lib/gcc/x86_64-w64-mingw32/13.2.0/../../../../x86_64-w64-mingw32/lib/../lib/libkernel32.a(libkernel32s00431.o)
 .idata$7       0x000000033753e4e8        0x4 C:/Users/DuyThanh/mingw64/bin/../lib/gcc/x86_64-w64-mingw32/13.2.0/../../../../x86_64-w64-mingw32/lib/../lib/libkernel32.a(libkernel32s00435.o)
 .idata$7       0x000000033753e4ec        0x4 C:/Users/DuyThanh/mingw64/bin/../lib/gcc/x86_64-w64-mingw32/13.2.0/../../../../x86_64-w64-mingw32/lib/../lib/libkernel32.a(libkernel32s00436.o)
 .idata$7       0x000000033753e4f0        0x4 C:/Users/DuyThanh/mingw64/bin/../lib/gcc/x86_64-w64-mingw32/13.2.0/../../../../x86_64-w64-mingw32/lib/../lib/libkernel32.a(libkernel32s00440.o)
 .idata$7       0x000000033753e4f4        0x4 C:/Users/DuyThanh/mingw64/bin/../lib/gcc/x86_64-w64-mingw32/13.2.0/../../../../x86_64-w64-mingw32/lib/../lib/libkernel32.a(libkernel32s00522.o)
 .idata$7       0x000000033753e4f8        0x4 C:/Users/DuyThanh/mingw64/bin/../lib/gcc/x86_64-w64-mingw32/13.2.0/../../../../x86_64-w64-mingw32/lib/../lib/libkernel32.a(libkernel32s00528.o)
 .idata$7       0x000000033753e4fc        0x4 C:/Users/DuyThanh/mingw64/bin/../lib/gcc/x86_64-w64-mingw32/13.2.0/../../../../x86_64-w64-mingw32/lib/../lib/libkernel32.a(libkernel32s00549.o)
 .idata$7       0x000000033753e500        0x4 C:/Users/DuyThanh/mingw64/bin/../lib/gcc/x86_64-w64-mingw32/13.2.0/../../../../x86_64-w64-mingw32/lib/../lib/libkernel32.a(libkernel32s00550.o)
 .idata$7       0x000000033753e504        0x4 C:/Users/DuyThanh/mingw64/bin/../lib/gcc/x86_64-w64-mingw32/13.2.0/../../../../x86_64-w64-mingw32/lib/../lib/libkernel32.a(libkernel32s00554.o)
 .idata$7       0x000000033753e508        0x4 C:/Users/DuyThanh/mingw64/bin/../lib/gcc/x86_64-w64-mingw32/13.2.0/../../../../x86_64-w64-mingw32/lib/../lib/libkernel32.a(libkernel32s00566.o)
 .idata$7       0x000000033753e50c        0x4 C:/Users/DuyThanh/mingw64/bin/../lib/gcc/x86_64-w64-mingw32/13.2.0/../../../../x86_64-w64-mingw32/lib/../lib/libkernel32.a(libkernel32s00569.o)
 .idata$7       0x000000033753e510        0x4 C:/Users/DuyThanh/mingw64/bin/../lib/gcc/x86_64-w64-mingw32/13.2.0/../../../../x86_64-w64-mingw32/lib/../lib/libkernel32.a(libkernel32s00595.o)
 .idata$7       0x000000033753e514        0x4 C:/Users/DuyThanh/mingw64/bin/../lib/gcc/x86_64-w64-mingw32/13.2.0/../../../../x86_64-w64-mingw32/lib/../lib/libkernel32.a(libkernel32s00597.o)
 .idata$7       0x000000033753e518        0x4 C:/Users/DuyThanh/mingw64/bin/../lib/gcc/x86_64-w64-mingw32/13.2.0/../../../../x86_64-w64-mingw32/lib/../lib/libkernel32.a(libkernel32s00600.o)
 .idata$7       0x000000033753e51c        0x4 C:/Users/DuyThanh/mingw64/bin/../lib/gcc/x86_64-w64-mingw32/13.2.0/../../../../x86_64-w64-mingw32/lib/../lib/libkernel32.a(libkernel32s00606.o)
 .idata$7       0x000000033753e520        0x4 C:/Users/DuyThanh/mingw64/bin/../lib/gcc/x86_64-w64-mingw32/13.2.0/../../../../x86_64-w64-mingw32/lib/../lib/libkernel32.a(libkernel32s00609.o)
 .idata$7       0x000000033753e524        0x4 C:/Users/DuyThanh/mingw64/bin/../lib/gcc/x86_64-w64-mingw32/13.2.0/../../../../x86_64-w64-mingw32/lib/../lib/libkernel32.a(libkernel32s00617.o)
 .idata$7       0x000000033753e528        0x4 C:/Users/DuyThanh/mingw64/bin/../lib/gcc/x86_64-w64-mingw32/13.2.0/../../../../x86_64-w64-mingw32/lib/../lib/libkernel32.a(libkernel32s00620.o)
 .idata$7       0x000000033753e52c        0x4 C:/Users/DuyThanh/mingw64/bin/../lib/gcc/x86_64-w64-mingw32/13.2.0/../../../../x86_64-w64-mingw32/lib/../lib/libkernel32.a(libkernel32s00627.o)
 .idata$7       0x000000033753e530        0x4 C:/Users/DuyThanh/mingw64/bin/../lib/gcc/x86_64-w64-mingw32/13.2.0/../../../../x86_64-w64-mingw32/lib/../lib/libkernel32.a(libkernel32s00707.o)
 .idata$7       0x000000033753e534        0x4 C:/Users/DuyThanh/mingw64/bin/../lib/gcc/x86_64-w64-mingw32/13.2.0/../../../../x86_64-w64-mingw32/lib/../lib/libkernel32.a(libkernel32s00713.o)
 .idata$7       0x000000033753e538        0x4 C:/Users/DuyThanh/mingw64/bin/../lib/gcc/x86_64-w64-mingw32/13.2.0/../../../../x86_64-w64-mingw32/lib/../lib/libkernel32.a(libkernel32s00743.o)
 .idata$7       0x000000033753e53c        0x4 C:/Users/DuyThanh/mingw64/bin/../lib/gcc/x86_64-w64-mingw32/13.2.0/../../../../x86_64-w64-mingw32/lib/../lib/libkernel32.a(libkernel32s00760.o)
 .idata$7       0x000000033753e540        0x4 C:/Users/DuyThanh/mingw64/bin/../lib/gcc/x86_64-w64-mingw32/13.2.0/../../../../x86_64-w64-mingw32/lib/../lib/libkernel32.a(libkernel32s00764.o)
 .idata$7       0x000000033753e544        0x4 C:/Users/DuyThanh/mingw64/bin/../lib/gcc/x86_64-w64-mingw32/13.2.0/../../../../x86_64-w64-mingw32/lib/../lib/libkernel32.a(libkernel32s00766.o)
 .idata$7       0x000000033753e548        0x4 C:/Users/DuyThanh/mingw64/bin/../lib/gcc/x86_64-w64-mingw32/13.2.0/../../../../x86_64-w64-mingw32/lib/../lib/libkernel32.a(libkernel32s00778.o)
 .idata$7       0x000000033753e54c        0x4 C:/Users/DuyThanh/mingw64/bin/../lib/gcc/x86_64-w64-mingw32/13.2.0/../../../../x86_64-w64-mingw32/lib/../lib/libkernel32.a(libkernel32s00779.o)
 .idata$7       0x000000033753e550        0x4 C:/Users/DuyThanh/mingw64/bin/../lib/gcc/x86_64-w64-mingw32/13.2.0/../../../../x86_64-w64-mingw32/lib/../lib/libkernel32.a(libkernel32s00796.o)
 .idata$7       0x000000033753e554        0x4 C:/Users/DuyThanh/mingw64/bin/../lib/gcc/x86_64-w64-mingw32/13.2.0/../../../../x86_64-w64-mingw32/lib/../lib/libkernel32.a(libkernel32s00860.o)
 .idata$7       0x000000033753e558        0x4 C:/Users/DuyThanh/mingw64/bin/../lib/gcc/x86_64-w64-mingw32/13.2.0/../../../../x86_64-w64-mingw32/lib/../lib/libkernel32.a(libkernel32s00861.o)
 .idata$7       0x000000033753e55c        0x4 C:/Users/DuyThanh/mingw64/bin/../lib/gcc/x86_64-w64-mingw32/13.2.0/../../../../x86_64-w64-mingw32/lib/../lib/libkernel32.a(libkernel32s00862.o)
 .idata$7       0x000000033753e560        0x4 C:/Users/DuyThanh/mingw64/bin/../lib/gcc/x86_64-w64-mingw32/13.2.0/../../../../x86_64-w64-mingw32/lib/../lib/libkernel32.a(libkernel32s00864.o)
 .idata$7       0x000000033753e564        0x4 C:/Users/DuyThanh/mingw64/bin/../lib/gcc/x86_64-w64-mingw32/13.2.0/../../../../x86_64-w64-mingw32/lib/../lib/libkernel32.a(libkernel32s00866.o)
 .idata$7       0x000000033753e568        0x4 C:/Users/DuyThanh/mingw64/bin/../lib/gcc/x86_64-w64-mingw32/13.2.0/../../../../x86_64-w64-mingw32/lib/../lib/libkernel32.a(libkernel32s00870.o)
 .idata$7       0x000000033753e56c        0x4 C:/Users/DuyThanh/mingw64/bin/../lib/gcc/x86_64-w64-mingw32/13.2.0/../../../../x86_64-w64-mingw32/lib/../lib/libkernel32.a(libkernel32s00872.o)
 .idata$7       0x000000033753e570        0x4 C:/Users/DuyThanh/mingw64/bin/../lib/gcc/x86_64-w64-mingw32/13.2.0/../../../../x86_64-w64-mingw32/lib/../lib/libkernel32.a(libkernel32s00876.o)
 .idata$7       0x000000033753e574        0x4 C:/Users/DuyThanh/mingw64/bin/../lib/gcc/x86_64-w64-mingw32/13.2.0/../../../../x86_64-w64-mingw32/lib/../lib/libkernel32.a(libkernel32s00889.o)
 .idata$7       0x000000033753e578        0x4 C:/Users/DuyThanh/mingw64/bin/../lib/gcc/x86_64-w64-mingw32/13.2.0/../../../../x86_64-w64-mingw32/lib/../lib/libkernel32.a(libkernel32s00916.o)
 .idata$7       0x000000033753e57c        0x4 C:/Users/DuyThanh/mingw64/bin/../lib/gcc/x86_64-w64-mingw32/13.2.0/../../../../x86_64-w64-mingw32/lib/../lib/libkernel32.a(libkernel32s00981.o)
 .idata$7       0x000000033753e580        0x4 C:/Users/DuyThanh/mingw64/bin/../lib/gcc/x86_64-w64-mingw32/13.2.0/../../../../x86_64-w64-mingw32/lib/../lib/libkernel32.a(libkernel32s00985.o)
 .idata$7       0x000000033753e584        0x4 C:/Users/DuyThanh/mingw64/bin/../lib/gcc/x86_64-w64-mingw32/13.2.0/../../../../x86_64-w64-mingw32/lib/../lib/libkernel32.a(libkernel32s00988.o)
 .idata$7       0x000000033753e588        0x4 C:/Users/DuyThanh/mingw64/bin/../lib/gcc/x86_64-w64-mingw32/13.2.0/../../../../x86_64-w64-mingw32/lib/../lib/libkernel32.a(libkernel32s00999.o)
 .idata$7       0x000000033753e58c        0x4 C:/Users/DuyThanh/mingw64/bin/../lib/gcc/x86_64-w64-mingw32/13.2.0/../../../../x86_64-w64-mingw32/lib/../lib/libkernel32.a(libkernel32s01011.o)
 .idata$7       0x000000033753e590        0x4 C:/Users/DuyThanh/mingw64/bin/../lib/gcc/x86_64-w64-mingw32/13.2.0/../../../../x86_64-w64-mingw32/lib/../lib/libkernel32.a(libkernel32s01012.o)
 .idata$7       0x000000033753e594        0x4 C:/Users/DuyThanh/mingw64/bin/../lib/gcc/x86_64-w64-mingw32/13.2.0/../../../../x86_64-w64-mingw32/lib/../lib/libkernel32.a(libkernel32s01016.o)
 .idata$7       0x000000033753e598        0x4 C:/Users/DuyThanh/mingw64/bin/../lib/gcc/x86_64-w64-mingw32/13.2.0/../../../../x86_64-w64-mingw32/lib/../lib/libkernel32.a(libkernel32s01033.o)
 .idata$7       0x000000033753e59c        0x4 C:/Users/DuyThanh/mingw64/bin/../lib/gcc/x86_64-w64-mingw32/13.2.0/../../../../x86_64-w64-mingw32/lib/../lib/libkernel32.a(libkernel32s01075.o)
 .idata$7       0x000000033753e5a0        0x4 C:/Users/DuyThanh/mingw64/bin/../lib/gcc/x86_64-w64-mingw32/13.2.0/../../../../x86_64-w64-mingw32/lib/../lib/libkernel32.a(libkernel32s01076.o)
 .idata$7       0x000000033753e5a4        0x4 C:/Users/DuyThanh/mingw64/bin/../lib/gcc/x86_64-w64-mingw32/13.2.0/../../../../x86_64-w64-mingw32/lib/../lib/libkernel32.a(libkernel32s01128.o)
 .idata$7       0x000000033753e5a8        0x4 C:/Users/DuyThanh/mingw64/bin/../lib/gcc/x86_64-w64-mingw32/13.2.0/../../../../x86_64-w64-mingw32/lib/../lib/libkernel32.a(libkernel32s01164.o)
 .idata$7       0x000000033753e5ac        0x4 C:/Users/DuyThanh/mingw64/bin/../lib/gcc/x86_64-w64-mingw32/13.2.0/../../../../x86_64-w64-mingw32/lib/../lib/libkernel32.a(libkernel32s01167.o)
 .idata$7       0x000000033753e5b0        0x4 C:/Users/DuyThanh/mingw64/bin/../lib/gcc/x86_64-w64-mingw32/13.2.0/../../../../x86_64-w64-mingw32/lib/../lib/libkernel32.a(libkernel32s01258.o)
 .idata$7       0x000000033753e5b4        0x4 C:/Users/DuyThanh/mingw64/bin/../lib/gcc/x86_64-w64-mingw32/13.2.0/../../../../x86_64-w64-mingw32/lib/../lib/libkernel32.a(libkernel32s01274.o)
 .idata$7       0x000000033753e5b8        0x4 C:/Users/DuyThanh/mingw64/bin/../lib/gcc/x86_64-w64-mingw32/13.2.0/../../../../x86_64-w64-mingw32/lib/../lib/libkernel32.a(libkernel32s01283.o)
 .idata$7       0x000000033753e5bc        0x4 C:/Users/DuyThanh/mingw64/bin/../lib/gcc/x86_64-w64-mingw32/13.2.0/../../../../x86_64-w64-mingw32/lib/../lib/libkernel32.a(libkernel32s01290.o)
 .idata$7       0x000000033753e5c0        0x4 C:/Users/DuyThanh/mingw64/bin/../lib/gcc/x86_64-w64-mingw32/13.2.0/../../../../x86_64-w64-mingw32/lib/../lib/libkernel32.a(libkernel32s01297.o)
 .idata$7       0x000000033753e5c4        0x4 C:/Users/DuyThanh/mingw64/bin/../lib/gcc/x86_64-w64-mingw32/13.2.0/../../../../x86_64-w64-mingw32/lib/../lib/libkernel32.a(libkernel32s01316.o)
 .idata$7       0x000000033753e5c8        0x4 C:/Users/DuyThanh/mingw64/bin/../lib/gcc/x86_64-w64-mingw32/13.2.0/../../../../x86_64-w64-mingw32/lib/../lib/libkernel32.a(libkernel32s01320.o)
 .idata$7       0x000000033753e5cc        0x4 C:/Users/DuyThanh/mingw64/bin/../lib/gcc/x86_64-w64-mingw32/13.2.0/../../../../x86_64-w64-mingw32/lib/../lib/libkernel32.a(libkernel32s01406.o)
 .idata$7       0x000000033753e5d0        0x4 C:/Users/DuyThanh/mingw64/bin/../lib/gcc/x86_64-w64-mingw32/13.2.0/../../../../x86_64-w64-mingw32/lib/../lib/libkernel32.a(libkernel32s01417.o)
 .idata$7       0x000000033753e5d4        0x4 C:/Users/DuyThanh/mingw64/bin/../lib/gcc/x86_64-w64-mingw32/13.2.0/../../../../x86_64-w64-mingw32/lib/../lib/libkernel32.a(libkernel32s01441.o)
 .idata$7       0x000000033753e5d8        0x4 C:/Users/DuyThanh/mingw64/bin/../lib/gcc/x86_64-w64-mingw32/13.2.0/../../../../x86_64-w64-mingw32/lib/../lib/libkernel32.a(libkernel32s01448.o)
 .idata$7       0x000000033753e5dc        0x4 C:/Users/DuyThanh/mingw64/bin/../lib/gcc/x86_64-w64-mingw32/13.2.0/../../../../x86_64-w64-mingw32/lib/../lib/libkernel32.a(libkernel32s01456.o)
 .idata$7       0x000000033753e5e0        0x4 C:/Users/DuyThanh/mingw64/bin/../lib/gcc/x86_64-w64-mingw32/13.2.0/../../../../x86_64-w64-mingw32/lib/../lib/libkernel32.a(libkernel32s01457.o)
 .idata$7       0x000000033753e5e4        0x4 C:/Users/DuyThanh/mingw64/bin/../lib/gcc/x86_64-w64-mingw32/13.2.0/../../../../x86_64-w64-mingw32/lib/../lib/libkernel32.a(libkernel32s01458.o)
 .idata$7       0x000000033753e5e8        0x4 C:/Users/DuyThanh/mingw64/bin/../lib/gcc/x86_64-w64-mingw32/13.2.0/../../../../x86_64-w64-mingw32/lib/../lib/libkernel32.a(libkernel32s01488.o)
 .idata$7       0x000000033753e5ec        0x4 C:/Users/DuyThanh/mingw64/bin/../lib/gcc/x86_64-w64-mingw32/13.2.0/../../../../x86_64-w64-mingw32/lib/../lib/libkernel32.a(libkernel32s01490.o)
 .idata$7       0x000000033753e5f0        0x4 C:/Users/DuyThanh/mingw64/bin/../lib/gcc/x86_64-w64-mingw32/13.2.0/../../../../x86_64-w64-mingw32/lib/../lib/libkernel32.a(libkernel32s01499.o)
 .idata$7       0x000000033753e5f4        0x4 C:/Users/DuyThanh/mingw64/bin/../lib/gcc/x86_64-w64-mingw32/13.2.0/../../../../x86_64-w64-mingw32/lib/../lib/libkernel32.a(libkernel32s01500.o)
 .idata$7       0x000000033753e5f8        0x4 C:/Users/DuyThanh/mingw64/bin/../lib/gcc/x86_64-w64-mingw32/13.2.0/../../../../x86_64-w64-mingw32/lib/../lib/libkernel32.a(libkernel32s01543.o)
 .idata$7       0x000000033753e5fc        0x4 C:/Users/DuyThanh/mingw64/bin/../lib/gcc/x86_64-w64-mingw32/13.2.0/../../../../x86_64-w64-mingw32/lib/../lib/libkernel32.a(libkernel32s01562.o)
 .idata$7       0x000000033753e600        0x4 C:/Users/DuyThanh/mingw64/bin/../lib/gcc/x86_64-w64-mingw32/13.2.0/../../../../x86_64-w64-mingw32/lib/../lib/libkernel32.a(libkernel32s01563.o)
 .idata$7       0x000000033753e604       0x10 C:/Users/DuyThanh/mingw64/bin/../lib/gcc/x86_64-w64-mingw32/13.2.0/../../../../x86_64-w64-mingw32/lib/../lib/libkernel32.a(libkernel32t.o)
                0x000000033753e604                __lib64_libkernel32_a_iname
 .idata$7       0x000000033753e614        0x4 C:/Users/DuyThanh/mingw64/bin/../lib/gcc/x86_64-w64-mingw32/13.2.0/../../../../x86_64-w64-mingw32/lib/../lib/libmsvcrt.a(libmsvcrt_defs00063.o)
 .idata$7       0x000000033753e618        0x4 C:/Users/DuyThanh/mingw64/bin/../lib/gcc/x86_64-w64-mingw32/13.2.0/../../../../x86_64-w64-mingw32/lib/../lib/libmsvcrt.a(libmsvcrt_defs00066.o)
 .idata$7       0x000000033753e61c        0x4 C:/Users/DuyThanh/mingw64/bin/../lib/gcc/x86_64-w64-mingw32/13.2.0/../../../../x86_64-w64-mingw32/lib/../lib/libmsvcrt.a(libmsvcrt_defs00083.o)
 .idata$7       0x000000033753e620        0x4 C:/Users/DuyThanh/mingw64/bin/../lib/gcc/x86_64-w64-mingw32/13.2.0/../../../../x86_64-w64-mingw32/lib/../lib/libmsvcrt.a(libmsvcrt_defs00114.o)
 .idata$7       0x000000033753e624        0x4 C:/Users/DuyThanh/mingw64/bin/../lib/gcc/x86_64-w64-mingw32/13.2.0/../../../../x86_64-w64-mingw32/lib/../lib/libmsvcrt.a(libmsvcrt_defs00124.o)
 .idata$7       0x000000033753e628        0x4 C:/Users/DuyThanh/mingw64/bin/../lib/gcc/x86_64-w64-mingw32/13.2.0/../../../../x86_64-w64-mingw32/lib/../lib/libmsvcrt.a(libmsvcrt_defs00125.o)
 .idata$7       0x000000033753e62c        0x4 C:/Users/DuyThanh/mingw64/bin/../lib/gcc/x86_64-w64-mingw32/13.2.0/../../../../x86_64-w64-mingw32/lib/../lib/libmsvcrt.a(libmsvcrt_defs00140.o)
 .idata$7       0x000000033753e630        0x4 C:/Users/DuyThanh/mingw64/bin/../lib/gcc/x86_64-w64-mingw32/13.2.0/../../../../x86_64-w64-mingw32/lib/../lib/libmsvcrt.a(libmsvcrt_defs00154.o)
 .idata$7       0x000000033753e634        0x4 C:/Users/DuyThanh/mingw64/bin/../lib/gcc/x86_64-w64-mingw32/13.2.0/../../../../x86_64-w64-mingw32/lib/../lib/libmsvcrt.a(libmsvcrt_defs00202.o)
 .idata$7       0x000000033753e638        0x4 C:/Users/DuyThanh/mingw64/bin/../lib/gcc/x86_64-w64-mingw32/13.2.0/../../../../x86_64-w64-mingw32/lib/../lib/libmsvcrt.a(libmsvcrt_defs00205.o)
 .idata$7       0x000000033753e63c        0x4 C:/Users/DuyThanh/mingw64/bin/../lib/gcc/x86_64-w64-mingw32/13.2.0/../../../../x86_64-w64-mingw32/lib/../lib/libmsvcrt.a(libmsvcrt_defs00224.o)
 .idata$7       0x000000033753e640        0x4 C:/Users/DuyThanh/mingw64/bin/../lib/gcc/x86_64-w64-mingw32/13.2.0/../../../../x86_64-w64-mingw32/lib/../lib/libmsvcrt.a(libmsvcrt_defs00236.o)
 .idata$7       0x000000033753e644        0x4 C:/Users/DuyThanh/mingw64/bin/../lib/gcc/x86_64-w64-mingw32/13.2.0/../../../../x86_64-w64-mingw32/lib/../lib/libmsvcrt.a(libmsvcrt_defs00237.o)
 .idata$7       0x000000033753e648        0x4 C:/Users/DuyThanh/mingw64/bin/../lib/gcc/x86_64-w64-mingw32/13.2.0/../../../../x86_64-w64-mingw32/lib/../lib/libmsvcrt.a(libmsvcrt_defs00242.o)
 .idata$7       0x000000033753e64c        0x4 C:/Users/DuyThanh/mingw64/bin/../lib/gcc/x86_64-w64-mingw32/13.2.0/../../../../x86_64-w64-mingw32/lib/../lib/libmsvcrt.a(libmsvcrt_defs00245.o)
 .idata$7       0x000000033753e650        0x4 C:/Users/DuyThanh/mingw64/bin/../lib/gcc/x86_64-w64-mingw32/13.2.0/../../../../x86_64-w64-mingw32/lib/../lib/libmsvcrt.a(libmsvcrt_defs00275.o)
 .idata$7       0x000000033753e654        0x4 C:/Users/DuyThanh/mingw64/bin/../lib/gcc/x86_64-w64-mingw32/13.2.0/../../../../x86_64-w64-mingw32/lib/../lib/libmsvcrt.a(libmsvcrt_defs00282.o)
 .idata$7       0x000000033753e658        0x4 C:/Users/DuyThanh/mingw64/bin/../lib/gcc/x86_64-w64-mingw32/13.2.0/../../../../x86_64-w64-mingw32/lib/../lib/libmsvcrt.a(libmsvcrt_defs00298.o)
 .idata$7       0x000000033753e65c        0x4 C:/Users/DuyThanh/mingw64/bin/../lib/gcc/x86_64-w64-mingw32/13.2.0/../../../../x86_64-w64-mingw32/lib/../lib/libmsvcrt.a(libmsvcrt_defs00314.o)
 .idata$7       0x000000033753e660        0x4 C:/Users/DuyThanh/mingw64/bin/../lib/gcc/x86_64-w64-mingw32/13.2.0/../../../../x86_64-w64-mingw32/lib/../lib/libmsvcrt.a(libmsvcrt_defs00337.o)
 .idata$7       0x000000033753e664        0x4 C:/Users/DuyThanh/mingw64/bin/../lib/gcc/x86_64-w64-mingw32/13.2.0/../../../../x86_64-w64-mingw32/lib/../lib/libmsvcrt.a(libmsvcrt_defs00342.o)
 .idata$7       0x000000033753e668        0x4 C:/Users/DuyThanh/mingw64/bin/../lib/gcc/x86_64-w64-mingw32/13.2.0/../../../../x86_64-w64-mingw32/lib/../lib/libmsvcrt.a(libmsvcrt_defs00445.o)
 .idata$7       0x000000033753e66c        0x4 C:/Users/DuyThanh/mingw64/bin/../lib/gcc/x86_64-w64-mingw32/13.2.0/../../../../x86_64-w64-mingw32/lib/../lib/libmsvcrt.a(libmsvcrt_defs00446.o)
 .idata$7       0x000000033753e670        0x4 C:/Users/DuyThanh/mingw64/bin/../lib/gcc/x86_64-w64-mingw32/13.2.0/../../../../x86_64-w64-mingw32/lib/../lib/libmsvcrt.a(libmsvcrt_defs00607.o)
 .idata$7       0x000000033753e674        0x4 C:/Users/DuyThanh/mingw64/bin/../lib/gcc/x86_64-w64-mingw32/13.2.0/../../../../x86_64-w64-mingw32/lib/../lib/libmsvcrt.a(libmsvcrt_defs00624.o)
 .idata$7       0x000000033753e678        0x4 C:/Users/DuyThanh/mingw64/bin/../lib/gcc/x86_64-w64-mingw32/13.2.0/../../../../x86_64-w64-mingw32/lib/../lib/libmsvcrt.a(libmsvcrt_defs00629.o)
 .idata$7       0x000000033753e67c        0x4 C:/Users/DuyThanh/mingw64/bin/../lib/gcc/x86_64-w64-mingw32/13.2.0/../../../../x86_64-w64-mingw32/lib/../lib/libmsvcrt.a(libmsvcrt_defs00683.o)
 .idata$7       0x000000033753e680        0x4 C:/Users/DuyThanh/mingw64/bin/../lib/gcc/x86_64-w64-mingw32/13.2.0/../../../../x86_64-w64-mingw32/lib/../lib/libmsvcrt.a(libmsvcrt_defs00732.o)
 .idata$7       0x000000033753e684        0x4 C:/Users/DuyThanh/mingw64/bin/../lib/gcc/x86_64-w64-mingw32/13.2.0/../../../../x86_64-w64-mingw32/lib/../lib/libmsvcrt.a(libmsvcrt_defs00741.o)
 .idata$7       0x000000033753e688        0x4 C:/Users/DuyThanh/mingw64/bin/../lib/gcc/x86_64-w64-mingw32/13.2.0/../../../../x86_64-w64-mingw32/lib/../lib/libmsvcrt.a(libmsvcrt_defs00778.o)
 .idata$7       0x000000033753e68c        0x4 C:/Users/DuyThanh/mingw64/bin/../lib/gcc/x86_64-w64-mingw32/13.2.0/../../../../x86_64-w64-mingw32/lib/../lib/libmsvcrt.a(libmsvcrt_defs00781.o)
 .idata$7       0x000000033753e690        0x4 C:/Users/DuyThanh/mingw64/bin/../lib/gcc/x86_64-w64-mingw32/13.2.0/../../../../x86_64-w64-mingw32/lib/../lib/libmsvcrt.a(libmsvcrt_defs00833.o)
 .idata$7       0x000000033753e694        0x4 C:/Users/DuyThanh/mingw64/bin/../lib/gcc/x86_64-w64-mingw32/13.2.0/../../../../x86_64-w64-mingw32/lib/../lib/libmsvcrt.a(libmsvcrt_defs00837.o)
 .idata$7       0x000000033753e698        0x4 C:/Users/DuyThanh/mingw64/bin/../lib/gcc/x86_64-w64-mingw32/13.2.0/../../../../x86_64-w64-mingw32/lib/../lib/libmsvcrt.a(libmsvcrt_defs01045.o)
 .idata$7       0x000000033753e69c        0x4 C:/Users/DuyThanh/mingw64/bin/../lib/gcc/x86_64-w64-mingw32/13.2.0/../../../../x86_64-w64-mingw32/lib/../lib/libmsvcrt.a(libmsvcrt_defs01054.o)
 .idata$7       0x000000033753e6a0        0x4 C:/Users/DuyThanh/mingw64/bin/../lib/gcc/x86_64-w64-mingw32/13.2.0/../../../../x86_64-w64-mingw32/lib/../lib/libmsvcrt.a(libmsvcrt_defs01067.o)
 .idata$7       0x000000033753e6a4        0x4 C:/Users/DuyThanh/mingw64/bin/../lib/gcc/x86_64-w64-mingw32/13.2.0/../../../../x86_64-w64-mingw32/lib/../lib/libmsvcrt.a(libmsvcrt_defs01071.o)
 .idata$7       0x000000033753e6a8        0x4 C:/Users/DuyThanh/mingw64/bin/../lib/gcc/x86_64-w64-mingw32/13.2.0/../../../../x86_64-w64-mingw32/lib/../lib/libmsvcrt.a(libmsvcrt_defs01085.o)
 .idata$7       0x000000033753e6ac        0x4 C:/Users/DuyThanh/mingw64/bin/../lib/gcc/x86_64-w64-mingw32/13.2.0/../../../../x86_64-w64-mingw32/lib/../lib/libmsvcrt.a(libmsvcrt_defs01089.o)
 .idata$7       0x000000033753e6b0        0x4 C:/Users/DuyThanh/mingw64/bin/../lib/gcc/x86_64-w64-mingw32/13.2.0/../../../../x86_64-w64-mingw32/lib/../lib/libmsvcrt.a(libmsvcrt_defs01092.o)
 .idata$7       0x000000033753e6b4        0x4 C:/Users/DuyThanh/mingw64/bin/../lib/gcc/x86_64-w64-mingw32/13.2.0/../../../../x86_64-w64-mingw32/lib/../lib/libmsvcrt.a(libmsvcrt_defs01093.o)
 .idata$7       0x000000033753e6b8        0x4 C:/Users/DuyThanh/mingw64/bin/../lib/gcc/x86_64-w64-mingw32/13.2.0/../../../../x86_64-w64-mingw32/lib/../lib/libmsvcrt.a(libmsvcrt_defs01095.o)
 .idata$7       0x000000033753e6bc        0x4 C:/Users/DuyThanh/mingw64/bin/../lib/gcc/x86_64-w64-mingw32/13.2.0/../../../../x86_64-w64-mingw32/lib/../lib/libmsvcrt.a(libmsvcrt_defs01102.o)
 .idata$7       0x000000033753e6c0        0x4 C:/Users/DuyThanh/mingw64/bin/../lib/gcc/x86_64-w64-mingw32/13.2.0/../../../../x86_64-w64-mingw32/lib/../lib/libmsvcrt.a(libmsvcrt_defs01107.o)
 .idata$7       0x000000033753e6c4        0x4 C:/Users/DuyThanh/mingw64/bin/../lib/gcc/x86_64-w64-mingw32/13.2.0/../../../../x86_64-w64-mingw32/lib/../lib/libmsvcrt.a(libmsvcrt_defs01108.o)
 .idata$7       0x000000033753e6c8        0x4 C:/Users/DuyThanh/mingw64/bin/../lib/gcc/x86_64-w64-mingw32/13.2.0/../../../../x86_64-w64-mingw32/lib/../lib/libmsvcrt.a(libmsvcrt_defs01111.o)
 .idata$7       0x000000033753e6cc        0x4 C:/Users/DuyThanh/mingw64/bin/../lib/gcc/x86_64-w64-mingw32/13.2.0/../../../../x86_64-w64-mingw32/lib/../lib/libmsvcrt.a(libmsvcrt_defs01112.o)
 .idata$7       0x000000033753e6d0        0x4 C:/Users/DuyThanh/mingw64/bin/../lib/gcc/x86_64-w64-mingw32/13.2.0/../../../../x86_64-w64-mingw32/lib/../lib/libmsvcrt.a(libmsvcrt_defs01121.o)
 .idata$7       0x000000033753e6d4        0x4 C:/Users/DuyThanh/mingw64/bin/../lib/gcc/x86_64-w64-mingw32/13.2.0/../../../../x86_64-w64-mingw32/lib/../lib/libmsvcrt.a(libmsvcrt_defs01122.o)
 .idata$7       0x000000033753e6d8        0x4 C:/Users/DuyThanh/mingw64/bin/../lib/gcc/x86_64-w64-mingw32/13.2.0/../../../../x86_64-w64-mingw32/lib/../lib/libmsvcrt.a(libmsvcrt_defs01125.o)
 .idata$7       0x000000033753e6dc        0x4 C:/Users/DuyThanh/mingw64/bin/../lib/gcc/x86_64-w64-mingw32/13.2.0/../../../../x86_64-w64-mingw32/lib/../lib/libmsvcrt.a(libmsvcrt_defs01129.o)
 .idata$7       0x000000033753e6e0        0x4 C:/Users/DuyThanh/mingw64/bin/../lib/gcc/x86_64-w64-mingw32/13.2.0/../../../../x86_64-w64-mingw32/lib/../lib/libmsvcrt.a(libmsvcrt_defs01131.o)
 .idata$7       0x000000033753e6e4        0x4 C:/Users/DuyThanh/mingw64/bin/../lib/gcc/x86_64-w64-mingw32/13.2.0/../../../../x86_64-w64-mingw32/lib/../lib/libmsvcrt.a(libmsvcrt_defs01138.o)
 .idata$7       0x000000033753e6e8        0x4 C:/Users/DuyThanh/mingw64/bin/../lib/gcc/x86_64-w64-mingw32/13.2.0/../../../../x86_64-w64-mingw32/lib/../lib/libmsvcrt.a(libmsvcrt_defs01139.o)
 .idata$7       0x000000033753e6ec        0x4 C:/Users/DuyThanh/mingw64/bin/../lib/gcc/x86_64-w64-mingw32/13.2.0/../../../../x86_64-w64-mingw32/lib/../lib/libmsvcrt.a(libmsvcrt_defs01145.o)
 .idata$7       0x000000033753e6f0        0x4 C:/Users/DuyThanh/mingw64/bin/../lib/gcc/x86_64-w64-mingw32/13.2.0/../../../../x86_64-w64-mingw32/lib/../lib/libmsvcrt.a(libmsvcrt_defs01147.o)
 .idata$7       0x000000033753e6f4        0x4 C:/Users/DuyThanh/mingw64/bin/../lib/gcc/x86_64-w64-mingw32/13.2.0/../../../../x86_64-w64-mingw32/lib/../lib/libmsvcrt.a(libmsvcrt_defs01162.o)
 .idata$7       0x000000033753e6f8        0x4 C:/Users/DuyThanh/mingw64/bin/../lib/gcc/x86_64-w64-mingw32/13.2.0/../../../../x86_64-w64-mingw32/lib/../lib/libmsvcrt.a(libmsvcrt_defs01166.o)
 .idata$7       0x000000033753e6fc        0x4 C:/Users/DuyThanh/mingw64/bin/../lib/gcc/x86_64-w64-mingw32/13.2.0/../../../../x86_64-w64-mingw32/lib/../lib/libmsvcrt.a(libmsvcrt_defs01173.o)
 .idata$7       0x000000033753e700        0x4 C:/Users/DuyThanh/mingw64/bin/../lib/gcc/x86_64-w64-mingw32/13.2.0/../../../../x86_64-w64-mingw32/lib/../lib/libmsvcrt.a(libmsvcrt_defs01181.o)
 .idata$7       0x000000033753e704        0x4 C:/Users/DuyThanh/mingw64/bin/../lib/gcc/x86_64-w64-mingw32/13.2.0/../../../../x86_64-w64-mingw32/lib/../lib/libmsvcrt.a(libmsvcrt_defs01182.o)
 .idata$7       0x000000033753e708        0x4 C:/Users/DuyThanh/mingw64/bin/../lib/gcc/x86_64-w64-mingw32/13.2.0/../../../../x86_64-w64-mingw32/lib/../lib/libmsvcrt.a(libmsvcrt_defs01183.o)
 .idata$7       0x000000033753e70c        0x4 C:/Users/DuyThanh/mingw64/bin/../lib/gcc/x86_64-w64-mingw32/13.2.0/../../../../x86_64-w64-mingw32/lib/../lib/libmsvcrt.a(libmsvcrt_defs01184.o)
 .idata$7       0x000000033753e710        0x4 C:/Users/DuyThanh/mingw64/bin/../lib/gcc/x86_64-w64-mingw32/13.2.0/../../../../x86_64-w64-mingw32/lib/../lib/libmsvcrt.a(libmsvcrt_defs01185.o)
 .idata$7       0x000000033753e714        0x4 C:/Users/DuyThanh/mingw64/bin/../lib/gcc/x86_64-w64-mingw32/13.2.0/../../../../x86_64-w64-mingw32/lib/../lib/libmsvcrt.a(libmsvcrt_defs01203.o)
 .idata$7       0x000000033753e718        0x4 C:/Users/DuyThanh/mingw64/bin/../lib/gcc/x86_64-w64-mingw32/13.2.0/../../../../x86_64-w64-mingw32/lib/../lib/libmsvcrt.a(libmsvcrt_defs01206.o)
 .idata$7       0x000000033753e71c        0x4 C:/Users/DuyThanh/mingw64/bin/../lib/gcc/x86_64-w64-mingw32/13.2.0/../../../../x86_64-w64-mingw32/lib/../lib/libmsvcrt.a(libmsvcrt_defs01212.o)
 .idata$7       0x000000033753e720        0x4 C:/Users/DuyThanh/mingw64/bin/../lib/gcc/x86_64-w64-mingw32/13.2.0/../../../../x86_64-w64-mingw32/lib/../lib/libmsvcrt.a(libmsvcrt_defs01228.o)
 .idata$7       0x000000033753e724        0x4 C:/Users/DuyThanh/mingw64/bin/../lib/gcc/x86_64-w64-mingw32/13.2.0/../../../../x86_64-w64-mingw32/lib/../lib/libmsvcrt.a(libmsvcrt_defs01229.o)
 .idata$7       0x000000033753e728        0x4 C:/Users/DuyThanh/mingw64/bin/../lib/gcc/x86_64-w64-mingw32/13.2.0/../../../../x86_64-w64-mingw32/lib/../lib/libmsvcrt.a(libmsvcrt_defs01231.o)
 .idata$7       0x000000033753e72c        0x4 C:/Users/DuyThanh/mingw64/bin/../lib/gcc/x86_64-w64-mingw32/13.2.0/../../../../x86_64-w64-mingw32/lib/../lib/libmsvcrt.a(libmsvcrt_defs01233.o)
 .idata$7       0x000000033753e730        0x4 C:/Users/DuyThanh/mingw64/bin/../lib/gcc/x86_64-w64-mingw32/13.2.0/../../../../x86_64-w64-mingw32/lib/../lib/libmsvcrt.a(libmsvcrt_defs01234.o)
 .idata$7       0x000000033753e734        0x4 C:/Users/DuyThanh/mingw64/bin/../lib/gcc/x86_64-w64-mingw32/13.2.0/../../../../x86_64-w64-mingw32/lib/../lib/libmsvcrt.a(libmsvcrt_defs01236.o)
 .idata$7       0x000000033753e738        0x4 C:/Users/DuyThanh/mingw64/bin/../lib/gcc/x86_64-w64-mingw32/13.2.0/../../../../x86_64-w64-mingw32/lib/../lib/libmsvcrt.a(libmsvcrt_defs01239.o)
 .idata$7       0x000000033753e73c        0x4 C:/Users/DuyThanh/mingw64/bin/../lib/gcc/x86_64-w64-mingw32/13.2.0/../../../../x86_64-w64-mingw32/lib/../lib/libmsvcrt.a(libmsvcrt_defs01240.o)
 .idata$7       0x000000033753e740        0x4 C:/Users/DuyThanh/mingw64/bin/../lib/gcc/x86_64-w64-mingw32/13.2.0/../../../../x86_64-w64-mingw32/lib/../lib/libmsvcrt.a(libmsvcrt_defs01243.o)
 .idata$7       0x000000033753e744        0x4 C:/Users/DuyThanh/mingw64/bin/../lib/gcc/x86_64-w64-mingw32/13.2.0/../../../../x86_64-w64-mingw32/lib/../lib/libmsvcrt.a(libmsvcrt_defs01244.o)
 .idata$7       0x000000033753e748        0x4 C:/Users/DuyThanh/mingw64/bin/../lib/gcc/x86_64-w64-mingw32/13.2.0/../../../../x86_64-w64-mingw32/lib/../lib/libmsvcrt.a(libmsvcrt_defs01245.o)
 .idata$7       0x000000033753e74c        0x4 C:/Users/DuyThanh/mingw64/bin/../lib/gcc/x86_64-w64-mingw32/13.2.0/../../../../x86_64-w64-mingw32/lib/../lib/libmsvcrt.a(libmsvcrt_defs01249.o)
 .idata$7       0x000000033753e750        0x4 C:/Users/DuyThanh/mingw64/bin/../lib/gcc/x86_64-w64-mingw32/13.2.0/../../../../x86_64-w64-mingw32/lib/../lib/libmsvcrt.a(libmsvcrt_defs01250.o)
 .idata$7       0x000000033753e754        0x4 C:/Users/DuyThanh/mingw64/bin/../lib/gcc/x86_64-w64-mingw32/13.2.0/../../../../x86_64-w64-mingw32/lib/../lib/libmsvcrt.a(libmsvcrt_defs01259.o)
 .idata$7       0x000000033753e758        0x4 C:/Users/DuyThanh/mingw64/bin/../lib/gcc/x86_64-w64-mingw32/13.2.0/../../../../x86_64-w64-mingw32/lib/../lib/libmsvcrt.a(libmsvcrt_defs01267.o)
 .idata$7       0x000000033753e75c        0x4 C:/Users/DuyThanh/mingw64/bin/../lib/gcc/x86_64-w64-mingw32/13.2.0/../../../../x86_64-w64-mingw32/lib/../lib/libmsvcrt.a(libmsvcrt_defs01273.o)
 .idata$7       0x000000033753e760        0x4 C:/Users/DuyThanh/mingw64/bin/../lib/gcc/x86_64-w64-mingw32/13.2.0/../../../../x86_64-w64-mingw32/lib/../lib/libmsvcrt.a(libmsvcrt_defs01274.o)
 .idata$7       0x000000033753e764        0x4 C:/Users/DuyThanh/mingw64/bin/../lib/gcc/x86_64-w64-mingw32/13.2.0/../../../../x86_64-w64-mingw32/lib/../lib/libmsvcrt.a(libmsvcrt_defs01300.o)
 .idata$7       0x000000033753e768        0xc C:/Users/DuyThanh/mingw64/bin/../lib/gcc/x86_64-w64-mingw32/13.2.0/../../../../x86_64-w64-mingw32/lib/../lib/libmsvcrt.a(libmsvcrt_deft.o)
                0x000000033753e768                __lib64_libmsvcrt_def_a_iname

.CRT            0x000000033753f000      0x200
                0x000000033753f000                ___crt_xc_start__ = .
 *(SORT_BY_NAME(.CRT$XC*))
 .CRT$XCA       0x000000033753f000        0x8 C:/Users/DuyThanh/mingw64/bin/../lib/gcc/x86_64-w64-mingw32/13.2.0/../../../../x86_64-w64-mingw32/lib/../lib/libmingw32.a(lib64_libmingw32_a-cinitexe.o)
                0x000000033753f000                __xc_a
 .CRT$XCZ       0x000000033753f008        0x8 C:/Users/DuyThanh/mingw64/bin/../lib/gcc/x86_64-w64-mingw32/13.2.0/../../../../x86_64-w64-mingw32/lib/../lib/libmingw32.a(lib64_libmingw32_a-cinitexe.o)
                0x000000033753f008                __xc_z
                0x000000033753f010                ___crt_xc_end__ = .
                0x000000033753f010                ___crt_xi_start__ = .
 *(SORT_BY_NAME(.CRT$XI*))
 .CRT$XIA       0x000000033753f010        0x8 C:/Users/DuyThanh/mingw64/bin/../lib/gcc/x86_64-w64-mingw32/13.2.0/../../../../x86_64-w64-mingw32/lib/../lib/libmingw32.a(lib64_libmingw32_a-cinitexe.o)
                0x000000033753f010                __xi_a
 .CRT$XIAA      0x000000033753f018        0x8 C:/Users/DuyThanh/mingw64/bin/../lib/gcc/x86_64-w64-mingw32/13.2.0/../../../../x86_64-w64-mingw32/lib/../lib/dllcrt2.o
                0x000000033753f018                pcinit
 .CRT$XIZ       0x000000033753f020        0x8 C:/Users/DuyThanh/mingw64/bin/../lib/gcc/x86_64-w64-mingw32/13.2.0/../../../../x86_64-w64-mingw32/lib/../lib/libmingw32.a(lib64_libmingw32_a-cinitexe.o)
                0x000000033753f020                __xi_z
                0x000000033753f028                ___crt_xi_end__ = .
                0x000000033753f028                ___crt_xl_start__ = .
 *(SORT_BY_NAME(.CRT$XL*))
 .CRT$XLA       0x000000033753f028        0x8 C:/Users/DuyThanh/mingw64/bin/../lib/gcc/x86_64-w64-mingw32/13.2.0/../../../../x86_64-w64-mingw32/lib/../lib/libmingw32.a(lib64_libmingw32_a-tlssup.o)
                0x000000033753f028                __xl_a
 .CRT$XLC       0x000000033753f030        0x8 C:/Users/DuyThanh/mingw64/bin/../lib/gcc/x86_64-w64-mingw32/13.2.0/../../../../x86_64-w64-mingw32/lib/../lib/libmingw32.a(lib64_libmingw32_a-tlssup.o)
                0x000000033753f030                __xl_c
 .CRT$XLD       0x000000033753f038        0x8 C:/Users/DuyThanh/mingw64/bin/../lib/gcc/x86_64-w64-mingw32/13.2.0/../../../../x86_64-w64-mingw32/lib/../lib/libmingw32.a(lib64_libmingw32_a-tlssup.o)
                0x000000033753f038                __xl_d
 .CRT$XLZ       0x000000033753f040        0x8 C:/Users/DuyThanh/mingw64/bin/../lib/gcc/x86_64-w64-mingw32/13.2.0/../../../../x86_64-w64-mingw32/lib/../lib/libmingw32.a(lib64_libmingw32_a-tlssup.o)
                0x000000033753f040                __xl_z
                0x000000033753f048                ___crt_xp_start__ = .
 *(SORT_BY_NAME(.CRT$XP*))
                0x000000033753f048                ___crt_xp_end__ = .
                0x000000033753f048                ___crt_xt_start__ = .
 *(SORT_BY_NAME(.CRT$XT*))
                0x000000033753f048                ___crt_xt_end__ = .
 .CRT$XDA       0x000000033753f048        0x8 C:/Users/DuyThanh/mingw64/bin/../lib/gcc/x86_64-w64-mingw32/13.2.0/../../../../x86_64-w64-mingw32/lib/../lib/libmingw32.a(lib64_libmingw32_a-tlssup.o)
 .CRT$XDZ       0x000000033753f050        0x8 C:/Users/DuyThanh/mingw64/bin/../lib/gcc/x86_64-w64-mingw32/13.2.0/../../../../x86_64-w64-mingw32/lib/../lib/libmingw32.a(lib64_libmingw32_a-tlssup.o)

.tls            0x0000000337540000      0x200
                0x0000000337540000                ___tls_start__ = .
 *(.tls$AAA)
 *(.tls)
 .tls           0x0000000337540000        0x8 C:/Users/DuyThanh/mingw64/bin/../lib/gcc/x86_64-w64-mingw32/13.2.0/../../../../x86_64-w64-mingw32/lib/../lib/libmingw32.a(lib64_libmingw32_a-tlssup.o)
                0x0000000337540000                _tls_start
 *(.tls$)
 *(SORT_BY_NAME(.tls$*))
 .tls$ZZZ       0x0000000337540008        0x8 C:/Users/DuyThanh/mingw64/bin/../lib/gcc/x86_64-w64-mingw32/13.2.0/../../../../x86_64-w64-mingw32/lib/../lib/libmingw32.a(lib64_libmingw32_a-tlssup.o)
                0x0000000337540008                _tls_end
 *(.tls$ZZZ)
                0x0000000337540010                ___tls_end__ = .

.endjunk        0x0000000337541000        0x0
                [!provide]                        PROVIDE (end = .)
                [!provide]                        PROVIDE (_end = .)
                0x0000000337541000                __end__ = .

.rsrc
 *(.rsrc)
 *(.rsrc$*)

.reloc          0x0000000337541000     0x1200
 *(.reloc)
 .reloc         0x0000000337541000     0x103c dll stuff

.stab
 *(.stab)

.stabstr
 *(.stabstr)

.debug_aranges  0x0000000337543000      0x200
 *(.debug_aranges)
 .debug_aranges
                0x0000000337543000       0x30 C:\Users\DuyThanh\AppData\Local\Temp\ccRJjOEn.o
 .debug_aranges
                0x0000000337543030       0x30 C:\Users\DuyThanh\AppData\Local\Temp\cclGozRv.o
 .debug_aranges
                0x0000000337543060       0x30 C:\Users\DuyThanh\AppData\Local\Temp\ccsXH6CC.o
 .debug_aranges
                0x0000000337543090       0x30 C:/Users/DuyThanh/mingw64/bin/../lib/gcc/x86_64-w64-mingw32/13.2.0/libgcc.a(_chkstk_ms.o)
 .debug_aranges
                0x00000003375430c0       0x20 C:/Users/DuyThanh/mingw64/bin/../lib/gcc/x86_64-w64-mingw32/13.2.0/libgcc.a(_ctors.o)

.zdebug_aranges
 *(.zdebug_aranges)

.debug_pubnames
 *(.debug_pubnames)

.zdebug_pubnames
 *(.zdebug_pubnames)

.debug_info     0x0000000337544000   0x124600
 *(.debug_info .gnu.linkonce.wi.*)
 .debug_info    0x0000000337544000      0xecf C:\Users\DuyThanh\AppData\Local\Temp\ccRJjOEn.o
 .debug_info    0x0000000337544ecf    0x34b50 C:\Users\DuyThanh\AppData\Local\Temp\cclGozRv.o
 .debug_info    0x0000000337579a1f    0xeda44 C:\Users\DuyThanh\AppData\Local\Temp\ccsXH6CC.o
 .debug_info    0x0000000337667463       0x28 C:/Users/DuyThanh/mingw64/bin/../lib/gcc/x86_64-w64-mingw32/13.2.0/libgcc.a(_chkstk_ms.o)
 .debug_info    0x000000033766748b      0xfb5 C:/Users/DuyThanh/mingw64/bin/../lib/gcc/x86_64-w64-mingw32/13.2.0/libgcc.a(_ctors.o)

.zdebug_info
 *(.zdebug_info .zdebug.gnu.linkonce.wi.*)

.debug_abbrev   0x0000000337669000     0x1a00
 *(.debug_abbrev)
 .debug_abbrev  0x0000000337669000      0x304 C:\Users\DuyThanh\AppData\Local\Temp\ccRJjOEn.o
 .debug_abbrev  0x0000000337669304      0x747 C:\Users\DuyThanh\AppData\Local\Temp\cclGozRv.o
 .debug_abbrev  0x0000000337669a4b      0xd2d C:\Users\DuyThanh\AppData\Local\Temp\ccsXH6CC.o
 .debug_abbrev  0x000000033766a778       0x14 C:/Users/DuyThanh/mingw64/bin/../lib/gcc/x86_64-w64-mingw32/13.2.0/libgcc.a(_chkstk_ms.o)
 .debug_abbrev  0x000000033766a78c       0x9b C:/Users/DuyThanh/mingw64/bin/../lib/gcc/x86_64-w64-mingw32/13.2.0/libgcc.a(_ctors.o)

.zdebug_abbrev
 *(.zdebug_abbrev)

.debug_line     0x000000033766b000    0x8da00
 *(.debug_line)
 .debug_line    0x000000033766b000      0x512 C:\Users\DuyThanh\AppData\Local\Temp\ccRJjOEn.o
 .debug_line    0x000000033766b512    0x16b39 C:\Users\DuyThanh\AppData\Local\Temp\cclGozRv.o
 .debug_line    0x000000033768204b    0x767e3 C:\Users\DuyThanh\AppData\Local\Temp\ccsXH6CC.o
 .debug_line    0x00000003376f882e       0x5c C:/Users/DuyThanh/mingw64/bin/../lib/gcc/x86_64-w64-mingw32/13.2.0/libgcc.a(_chkstk_ms.o)
 .debug_line    0x00000003376f888a       0x48 C:/Users/DuyThanh/mingw64/bin/../lib/gcc/x86_64-w64-mingw32/13.2.0/libgcc.a(_ctors.o)

.zdebug_line
 *(.zdebug_line)

.debug_frame    0x00000003376f9000    0x20c00
 *(.debug_frame*)
 .debug_frame   0x00000003376f9000      0x278 C:\Users\DuyThanh\AppData\Local\Temp\ccRJjOEn.o
 .debug_frame   0x00000003376f9278     0x52a0 C:\Users\DuyThanh\AppData\Local\Temp\cclGozRv.o
 .debug_frame   0x00000003376fe518    0x1b688 C:\Users\DuyThanh\AppData\Local\Temp\ccsXH6CC.o
 .debug_frame   0x0000000337719ba0       0x48 C:/Users/DuyThanh/mingw64/bin/../lib/gcc/x86_64-w64-mingw32/13.2.0/libgcc.a(_chkstk_ms.o)

.zdebug_frame
 *(.zdebug_frame*)

.debug_str      0x000000033771a000     0x2600
 *(.debug_str)
 .debug_str     0x000000033771a000       0x12 C:\Users\DuyThanh\AppData\Local\Temp\ccRJjOEn.o
 .debug_str     0x000000033771a012      0x61f C:\Users\DuyThanh\AppData\Local\Temp\cclGozRv.o
 .debug_str     0x000000033771a631     0x1ece C:\Users\DuyThanh\AppData\Local\Temp\ccsXH6CC.o
 .debug_str     0x000000033771c4ff       0xa5 C:/Users/DuyThanh/mingw64/bin/../lib/gcc/x86_64-w64-mingw32/13.2.0/libgcc.a(_chkstk_ms.o)
 .debug_str     0x000000033771c5a4        0x0 C:/Users/DuyThanh/mingw64/bin/../lib/gcc/x86_64-w64-mingw32/13.2.0/libgcc.a(_ctors.o)

.zdebug_str
 *(.zdebug_str)

.debug_loc
 *(.debug_loc)

.zdebug_loc
 *(.zdebug_loc)

.debug_macinfo
 *(.debug_macinfo)

.zdebug_macinfo
 *(.zdebug_macinfo)

.debug_weaknames
 *(.debug_weaknames)

.zdebug_weaknames
 *(.zdebug_weaknames)

.debug_funcnames
 *(.debug_funcnames)

.zdebug_funcnames
 *(.zdebug_funcnames)

.debug_typenames
 *(.debug_typenames)

.zdebug_typenames
 *(.zdebug_typenames)

.debug_varnames
 *(.debug_varnames)

.zdebug_varnames
 *(.zdebug_varnames)

.debug_pubtypes
 *(.debug_pubtypes)

.zdebug_pubtypes
 *(.zdebug_pubtypes)

.debug_ranges
 *(.debug_ranges)

.zdebug_ranges
 *(.zdebug_ranges)

.debug_types
 *(.debug_types .gnu.linkonce.wt.*)

.zdebug_types
 *(.zdebug_types .gnu.linkonce.wt.*)

.debug_addr
 *(.debug_addr)

.zdebug_addr
 *(.zdebug_addr)

.debug_line_str
                0x000000033771d000      0x800
 *(.debug_line_str)
 .debug_line_str
                0x000000033771d000       0xed C:\Users\DuyThanh\AppData\Local\Temp\ccRJjOEn.o
 .debug_line_str
                0x000000033771d0ed      0x219 C:\Users\DuyThanh\AppData\Local\Temp\cclGozRv.o
 .debug_line_str
                0x000000033771d306      0x20c C:\Users\DuyThanh\AppData\Local\Temp\ccsXH6CC.o
 .debug_line_str
                0x000000033771d512       0x99 C:/Users/DuyThanh/mingw64/bin/../lib/gcc/x86_64-w64-mingw32/13.2.0/libgcc.a(_chkstk_ms.o)
 .debug_line_str
                0x000000033771d5ab      0x165 C:/Users/DuyThanh/mingw64/bin/../lib/gcc/x86_64-w64-mingw32/13.2.0/libgcc.a(_ctors.o)

.zdebug_line_str
 *(.zdebug_line_str)

.debug_loclists
                0x000000033771e000    0xc2a00
 *(.debug_loclists)
 .debug_loclists
                0x000000033771e000      0x5df C:\Users\DuyThanh\AppData\Local\Temp\ccRJjOEn.o
 .debug_loclists
                0x000000033771e5df    0x1cf32 C:\Users\DuyThanh\AppData\Local\Temp\cclGozRv.o
 .debug_loclists
                0x000000033773b511    0xa5353 C:\Users\DuyThanh\AppData\Local\Temp\ccsXH6CC.o

.zdebug_loclists
 *(.zdebug_loclists)

.debug_macro
 *(.debug_macro)

.zdebug_macro
 *(.zdebug_macro)

.debug_names
 *(.debug_names)

.zdebug_names
 *(.zdebug_names)

.debug_rnglists
                0x00000003377e1000     0x8800
 *(.debug_rnglists)
 .debug_rnglists
                0x00000003377e1000       0x22 C:\Users\DuyThanh\AppData\Local\Temp\ccRJjOEn.o
 .debug_rnglists
                0x00000003377e1022     0x148a C:\Users\DuyThanh\AppData\Local\Temp\cclGozRv.o
 .debug_rnglists
                0x00000003377e24ac     0x72cd C:\Users\DuyThanh\AppData\Local\Temp\ccsXH6CC.o

.zdebug_rnglists
 *(.zdebug_rnglists)

.debug_str_offsets
 *(.debug_str_offsets)

.zdebug_str_offsets
 *(.zdebug_str_offsets)

.debug_sup
 *(.debug_sup)

.debug_gdb_scripts
 *(.debug_gdb_scripts)

.zdebug_gdb_scripts
 *(.zdebug_gdb_scripts)
OUTPUT(D:\Project\build\project.dll pei-x86-64)
LOAD dll stuff
